
fileman.lef:     file format elf64-x86-64


Disassembly of section .init:

00000000004000e8 <_init>:
  4000e8:	e8 43 01 00 00       	callq  400230 <frame_dummy>
  4000ed:	e8 8e 27 02 00       	callq  422880 <__do_global_ctors_aux>
  4000f2:	c2 00 00             	retq   $0x0

Disassembly of section .text:

0000000000400100 <_Z12GetVideoModev>:
  400100:	48 c7 c5 00 00 00 00 	mov    $0x0,%rbp
  400107:	55                   	push   %rbp
  400108:	48 89 e5             	mov    %rsp,%rbp
  40010b:	e8 d8 ff ff ff       	callq  4000e8 <_init>
  400110:	e8 48 01 00 00       	callq  40025d <main>
  400115:	e8 a7 27 02 00       	callq  4228c1 <_fini>
  40011a:	48 c7 c0 01 00 00 00 	mov    $0x1,%rax
  400121:	cd 69                	int    $0x69

0000000000400123 <hang>:
  400123:	f4                   	hlt    
  400124:	eb fd                	jmp    400123 <hang>
  400126:	66 2e 0f 1f 84 00 00 	nopw   %cs:0x0(%rax,%rax,1)
  40012d:	00 00 00 

0000000000400130 <deregister_tm_clones>:
  400130:	b8 e8 4c 43 00       	mov    $0x434ce8,%eax
  400135:	48 3d e8 4c 43 00    	cmp    $0x434ce8,%rax
  40013b:	74 13                	je     400150 <deregister_tm_clones+0x20>
  40013d:	b8 00 00 00 00       	mov    $0x0,%eax
  400142:	48 85 c0             	test   %rax,%rax
  400145:	74 09                	je     400150 <deregister_tm_clones+0x20>
  400147:	bf e8 4c 43 00       	mov    $0x434ce8,%edi
  40014c:	ff e0                	jmpq   *%rax
  40014e:	66 90                	xchg   %ax,%ax
  400150:	c3                   	retq   
  400151:	66 66 2e 0f 1f 84 00 	data16 nopw %cs:0x0(%rax,%rax,1)
  400158:	00 00 00 00 
  40015c:	0f 1f 40 00          	nopl   0x0(%rax)

0000000000400160 <register_tm_clones>:
  400160:	be e8 4c 43 00       	mov    $0x434ce8,%esi
  400165:	48 81 ee e8 4c 43 00 	sub    $0x434ce8,%rsi
  40016c:	48 c1 fe 03          	sar    $0x3,%rsi
  400170:	48 89 f0             	mov    %rsi,%rax
  400173:	48 c1 e8 3f          	shr    $0x3f,%rax
  400177:	48 01 c6             	add    %rax,%rsi
  40017a:	48 d1 fe             	sar    %rsi
  40017d:	74 11                	je     400190 <register_tm_clones+0x30>
  40017f:	b8 00 00 00 00       	mov    $0x0,%eax
  400184:	48 85 c0             	test   %rax,%rax
  400187:	74 07                	je     400190 <register_tm_clones+0x30>
  400189:	bf e8 4c 43 00       	mov    $0x434ce8,%edi
  40018e:	ff e0                	jmpq   *%rax
  400190:	c3                   	retq   
  400191:	66 66 2e 0f 1f 84 00 	data16 nopw %cs:0x0(%rax,%rax,1)
  400198:	00 00 00 00 
  40019c:	0f 1f 40 00          	nopl   0x0(%rax)

00000000004001a0 <__do_global_dtors_aux>:
  4001a0:	80 3d 59 4b 03 00 00 	cmpb   $0x0,0x34b59(%rip)        # 434d00 <completed.5415>
  4001a7:	75 77                	jne    400220 <__do_global_dtors_aux+0x80>
  4001a9:	55                   	push   %rbp
  4001aa:	48 8b 05 57 4b 03 00 	mov    0x34b57(%rip),%rax        # 434d08 <dtor_idx.5417>
  4001b1:	48 89 e5             	mov    %rsp,%rbp
  4001b4:	41 54                	push   %r12
  4001b6:	41 bc 20 40 43 00    	mov    $0x434020,%r12d
  4001bc:	53                   	push   %rbx
  4001bd:	bb 28 40 43 00       	mov    $0x434028,%ebx
  4001c2:	48 81 eb 20 40 43 00 	sub    $0x434020,%rbx
  4001c9:	48 c1 fb 03          	sar    $0x3,%rbx
  4001cd:	48 83 eb 01          	sub    $0x1,%rbx
  4001d1:	48 39 d8             	cmp    %rbx,%rax
  4001d4:	73 25                	jae    4001fb <__do_global_dtors_aux+0x5b>
  4001d6:	66 2e 0f 1f 84 00 00 	nopw   %cs:0x0(%rax,%rax,1)
  4001dd:	00 00 00 
  4001e0:	48 83 c0 01          	add    $0x1,%rax
  4001e4:	48 89 05 1d 4b 03 00 	mov    %rax,0x34b1d(%rip)        # 434d08 <dtor_idx.5417>
  4001eb:	41 ff 14 c4          	callq  *(%r12,%rax,8)
  4001ef:	48 8b 05 12 4b 03 00 	mov    0x34b12(%rip),%rax        # 434d08 <dtor_idx.5417>
  4001f6:	48 39 d8             	cmp    %rbx,%rax
  4001f9:	72 e5                	jb     4001e0 <__do_global_dtors_aux+0x40>
  4001fb:	e8 30 ff ff ff       	callq  400130 <deregister_tm_clones>
  400200:	b8 00 00 00 00       	mov    $0x0,%eax
  400205:	48 85 c0             	test   %rax,%rax
  400208:	74 0a                	je     400214 <__do_global_dtors_aux+0x74>
  40020a:	bf 10 d1 42 00       	mov    $0x42d110,%edi
  40020f:	e8 ec fd bf ff       	callq  0 <_ZZ7ttynameE3buf>
  400214:	5b                   	pop    %rbx
  400215:	41 5c                	pop    %r12
  400217:	c6 05 e2 4a 03 00 01 	movb   $0x1,0x34ae2(%rip)        # 434d00 <completed.5415>
  40021e:	5d                   	pop    %rbp
  40021f:	c3                   	retq   
  400220:	c3                   	retq   
  400221:	66 66 2e 0f 1f 84 00 	data16 nopw %cs:0x0(%rax,%rax,1)
  400228:	00 00 00 00 
  40022c:	0f 1f 40 00          	nopl   0x0(%rax)

0000000000400230 <frame_dummy>:
  400230:	b8 00 00 00 00       	mov    $0x0,%eax
  400235:	48 85 c0             	test   %rax,%rax
  400238:	74 1e                	je     400258 <frame_dummy+0x28>
  40023a:	55                   	push   %rbp
  40023b:	be 20 4d 43 00       	mov    $0x434d20,%esi
  400240:	bf 10 d1 42 00       	mov    $0x42d110,%edi
  400245:	48 89 e5             	mov    %rsp,%rbp
  400248:	e8 b3 fd bf ff       	callq  0 <_ZZ7ttynameE3buf>
  40024d:	5d                   	pop    %rbp
  40024e:	e9 0d ff ff ff       	jmpq   400160 <register_tm_clones>
  400253:	0f 1f 44 00 00       	nopl   0x0(%rax,%rax,1)
  400258:	e9 03 ff ff ff       	jmpq   400160 <register_tm_clones>

000000000040025d <main>:
  40025d:	55                   	push   %rbp
  40025e:	48 89 e5             	mov    %rsp,%rbp
  400261:	41 54                	push   %r12
  400263:	53                   	push   %rbx
  400264:	48 81 ec c0 01 00 00 	sub    $0x1c0,%rsp
  40026b:	89 f8                	mov    %edi,%eax
  40026d:	48 89 b5 30 fe ff ff 	mov    %rsi,-0x1d0(%rbp)
  400274:	88 85 3c fe ff ff    	mov    %al,-0x1c4(%rbp)
  40027a:	48 8d 85 40 ff ff ff 	lea    -0xc0(%rbp),%rax
  400281:	48 89 c7             	mov    %rax,%rdi
  400284:	e8 19 03 00 00       	callq  4005a2 <_ZN10win_info_tC1Ev>
  400289:	66 c7 85 44 ff ff ff 	movw   $0x200,-0xbc(%rbp)
  400290:	00 02 
  400292:	66 c7 85 46 ff ff ff 	movw   $0x100,-0xba(%rbp)
  400299:	00 01 
  40029b:	66 c7 85 40 ff ff ff 	movw   $0x64,-0xc0(%rbp)
  4002a2:	64 00 
  4002a4:	66 c7 85 42 ff ff ff 	movw   $0x32,-0xbe(%rbp)
  4002ab:	32 00 
  4002ad:	c7 85 48 ff ff ff 00 	movl   $0x0,-0xb8(%rbp)
  4002b4:	00 00 00 
  4002b7:	48 8d 85 40 ff ff ff 	lea    -0xc0(%rbp),%rax
  4002be:	48 83 c0 0c          	add    $0xc,%rax
  4002c2:	48 bb 46 69 6c 65 4d 	movabs $0x6e614d656c6946,%rbx
  4002c9:	61 6e 00 
  4002cc:	48 89 18             	mov    %rbx,(%rax)
  4002cf:	c7 45 e8 00 00 00 00 	movl   $0x0,-0x18(%rbp)
  4002d6:	8b 45 e8             	mov    -0x18(%rbp),%eax
  4002d9:	8d 50 01             	lea    0x1(%rax),%edx
  4002dc:	89 55 e8             	mov    %edx,-0x18(%rbp)
  4002df:	48 63 c8             	movslq %eax,%rcx
  4002e2:	48 8d 95 b0 fe ff ff 	lea    -0x150(%rbp),%rdx
  4002e9:	8b 45 ec             	mov    -0x14(%rbp),%eax
  4002ec:	48 89 ce             	mov    %rcx,%rsi
  4002ef:	89 c7                	mov    %eax,%edi
  4002f1:	e8 da 06 00 00       	callq  4009d0 <_Z13lemon_readdirimP12lemon_dirent>
  4002f6:	85 c0                	test   %eax,%eax
  4002f8:	0f 95 c0             	setne  %al
  4002fb:	84 c0                	test   %al,%al
  4002fd:	74 02                	je     400301 <main+0xa4>
  4002ff:	eb d5                	jmp    4002d6 <main+0x79>
  400301:	48 8d 85 40 fe ff ff 	lea    -0x1c0(%rbp),%rax
  400308:	48 89 c7             	mov    %rax,%rdi
  40030b:	e8 f0 06 00 00       	callq  400a00 <_Z14ReceiveMessageP13ipc_message_t>
  400310:	48 85 c0             	test   %rax,%rax
  400313:	0f 95 c0             	setne  %al
  400316:	84 c0                	test   %al,%al
  400318:	74 e7                	je     400301 <main+0xa4>
  40031a:	48 8b 85 50 fe ff ff 	mov    -0x1b0(%rbp),%rax
  400321:	48 83 f8 05          	cmp    $0x5,%rax
  400325:	75 16                	jne    40033d <main+0xe0>
  400327:	48 8b 45 d8          	mov    -0x28(%rbp),%rax
  40032b:	48 89 c7             	mov    %rax,%rdi
  40032e:	e8 fd 17 00 00       	callq  401b30 <_Z13DestroyWindowP6Window>
  400333:	bf 00 00 00 00       	mov    $0x0,%edi
  400338:	e8 78 b5 00 00       	callq  40b8b5 <exit>
  40033d:	48 8b 85 50 fe ff ff 	mov    -0x1b0(%rbp),%rax
  400344:	48 83 f8 02          	cmp    $0x2,%rax
  400348:	75 1a                	jne    400364 <main+0x107>
  40034a:	48 8b 85 58 fe ff ff 	mov    -0x1a8(%rbp),%rax
  400351:	48 c1 e8 20          	shr    $0x20,%rax
  400355:	89 45 d4             	mov    %eax,-0x2c(%rbp)
  400358:	48 8b 85 58 fe ff ff 	mov    -0x1a8(%rbp),%rax
  40035f:	89 45 d0             	mov    %eax,-0x30(%rbp)
  400362:	eb 11                	jmp    400375 <main+0x118>
  400364:	48 8b 85 50 fe ff ff 	mov    -0x1b0(%rbp),%rax
  40036b:	48 83 f8 03          	cmp    $0x3,%rax
  40036f:	0f 85 27 02 00 00    	jne    40059c <main+0x33f>
  400375:	48 8b 85 50 fe ff ff 	mov    -0x1b0(%rbp),%rax
  40037c:	48 83 f8 01          	cmp    $0x1,%rax
  400380:	0f 85 7b ff ff ff    	jne    400301 <main+0xa4>
  400386:	48 8b 85 58 fe ff ff 	mov    -0x1a8(%rbp),%rax
  40038d:	48 3d 0d 01 00 00    	cmp    $0x10d,%rax
  400393:	75 54                	jne    4003e9 <main+0x18c>
  400395:	48 8b 45 c8          	mov    -0x38(%rbp),%rax
  400399:	8b 40 64             	mov    0x64(%rax),%eax
  40039c:	8d 50 01             	lea    0x1(%rax),%edx
  40039f:	48 8b 45 c8          	mov    -0x38(%rbp),%rax
  4003a3:	89 50 64             	mov    %edx,0x64(%rax)
  4003a6:	48 8b 45 c8          	mov    -0x38(%rbp),%rax
  4003aa:	8b 58 64             	mov    0x64(%rax),%ebx
  4003ad:	48 8b 45 c8          	mov    -0x38(%rbp),%rax
  4003b1:	48 83 c0 68          	add    $0x68,%rax
  4003b5:	48 89 c7             	mov    %rax,%rdi
  4003b8:	e8 17 02 00 00       	callq  4005d4 <_ZN4ListIP8ListItemE10get_lengthEv>
  4003bd:	39 c3                	cmp    %eax,%ebx
  4003bf:	0f 9d c0             	setge  %al
  4003c2:	84 c0                	test   %al,%al
  4003c4:	0f 84 37 ff ff ff    	je     400301 <main+0xa4>
  4003ca:	48 8b 45 c8          	mov    -0x38(%rbp),%rax
  4003ce:	48 83 c0 68          	add    $0x68,%rax
  4003d2:	48 89 c7             	mov    %rax,%rdi
  4003d5:	e8 fa 01 00 00       	callq  4005d4 <_ZN4ListIP8ListItemE10get_lengthEv>
  4003da:	8d 50 ff             	lea    -0x1(%rax),%edx
  4003dd:	48 8b 45 c8          	mov    -0x38(%rbp),%rax
  4003e1:	89 50 64             	mov    %edx,0x64(%rax)
  4003e4:	e9 18 ff ff ff       	jmpq   400301 <main+0xa4>
  4003e9:	48 8b 85 58 fe ff ff 	mov    -0x1a8(%rbp),%rax
  4003f0:	48 3d 0a 01 00 00    	cmp    $0x10a,%rax
  4003f6:	75 30                	jne    400428 <main+0x1cb>
  4003f8:	48 8b 45 c8          	mov    -0x38(%rbp),%rax
  4003fc:	8b 40 64             	mov    0x64(%rax),%eax
  4003ff:	8d 50 ff             	lea    -0x1(%rax),%edx
  400402:	48 8b 45 c8          	mov    -0x38(%rbp),%rax
  400406:	89 50 64             	mov    %edx,0x64(%rax)
  400409:	48 8b 45 c8          	mov    -0x38(%rbp),%rax
  40040d:	8b 40 64             	mov    0x64(%rax),%eax
  400410:	85 c0                	test   %eax,%eax
  400412:	0f 89 e9 fe ff ff    	jns    400301 <main+0xa4>
  400418:	48 8b 45 c8          	mov    -0x38(%rbp),%rax
  40041c:	c7 40 64 00 00 00 00 	movl   $0x0,0x64(%rax)
  400423:	e9 d9 fe ff ff       	jmpq   400301 <main+0xa4>
  400428:	48 8b 85 58 fe ff ff 	mov    -0x1a8(%rbp),%rax
  40042f:	48 83 f8 0a          	cmp    $0xa,%rax
  400433:	0f 85 c8 fe ff ff    	jne    400301 <main+0xa4>
  400439:	48 8b 45 c8          	mov    -0x38(%rbp),%rax
  40043d:	48 8d 50 68          	lea    0x68(%rax),%rdx
  400441:	48 8b 45 c8          	mov    -0x38(%rbp),%rax
  400445:	8b 40 64             	mov    0x64(%rax),%eax
  400448:	89 c6                	mov    %eax,%esi
  40044a:	48 89 d7             	mov    %rdx,%rdi
  40044d:	e8 94 01 00 00       	callq  4005e6 <_ZN4ListIP8ListItemE6get_atEj>
  400452:	48 89 45 c0          	mov    %rax,-0x40(%rbp)
  400456:	48 8b 45 c8          	mov    -0x38(%rbp),%rax
  40045a:	8b 40 64             	mov    0x64(%rax),%eax
  40045d:	48 63 c8             	movslq %eax,%rcx
  400460:	48 8d 95 b0 fe ff ff 	lea    -0x150(%rbp),%rdx
  400467:	8b 45 ec             	mov    -0x14(%rbp),%eax
  40046a:	48 89 ce             	mov    %rcx,%rsi
  40046d:	89 c7                	mov    %eax,%edi
  40046f:	e8 5c 05 00 00       	callq  4009d0 <_Z13lemon_readdirimP12lemon_dirent>
  400474:	8b 85 34 ff ff ff    	mov    -0xcc(%rbp),%eax
  40047a:	83 e0 02             	and    $0x2,%eax
  40047d:	85 c0                	test   %eax,%eax
  40047f:	0f 84 7c fe ff ff    	je     400301 <main+0xa4>
  400485:	8b 45 ec             	mov    -0x14(%rbp),%eax
  400488:	89 c7                	mov    %eax,%edi
  40048a:	e8 b7 44 00 00       	callq  404946 <close>
  40048f:	48 8d 85 70 fe ff ff 	lea    -0x190(%rbp),%rax
  400496:	66 c7 00 2f 00       	movw   $0x2f,(%rax)
  40049b:	48 8d 85 b0 fe ff ff 	lea    -0x150(%rbp),%rax
  4004a2:	48 8d 50 04          	lea    0x4(%rax),%rdx
  4004a6:	48 8d 85 70 fe ff ff 	lea    -0x190(%rbp),%rax
  4004ad:	48 89 d6             	mov    %rdx,%rsi
  4004b0:	48 89 c7             	mov    %rax,%rdi
  4004b3:	e8 9f fb 01 00       	callq  420057 <strcpy>
  4004b8:	48 8d 85 70 fe ff ff 	lea    -0x190(%rbp),%rax
  4004bf:	be 00 00 00 00       	mov    $0x0,%esi
  4004c4:	48 89 c7             	mov    %rax,%rdi
  4004c7:	e8 24 04 00 00       	callq  4008f0 <_Z10lemon_openPKci>
  4004cc:	89 45 ec             	mov    %eax,-0x14(%rbp)
  4004cf:	48 8b 45 c8          	mov    -0x38(%rbp),%rax
  4004d3:	48 83 c0 68          	add    $0x68,%rax
  4004d7:	48 89 c7             	mov    %rax,%rdi
  4004da:	e8 f5 00 00 00       	callq  4005d4 <_ZN4ListIP8ListItemE10get_lengthEv>
  4004df:	83 e8 01             	sub    $0x1,%eax
  4004e2:	89 45 e4             	mov    %eax,-0x1c(%rbp)
  4004e5:	83 7d e4 00          	cmpl   $0x0,-0x1c(%rbp)
  4004e9:	78 28                	js     400513 <main+0x2b6>
  4004eb:	48 8b 45 c8          	mov    -0x38(%rbp),%rax
  4004ef:	48 8d 50 68          	lea    0x68(%rax),%rdx
  4004f3:	8b 45 e4             	mov    -0x1c(%rbp),%eax
  4004f6:	89 c6                	mov    %eax,%esi
  4004f8:	48 89 d7             	mov    %rdx,%rdi
  4004fb:	e8 e6 00 00 00       	callq  4005e6 <_ZN4ListIP8ListItemE6get_atEj>
  400500:	be 20 00 00 00       	mov    $0x20,%esi
  400505:	48 89 c7             	mov    %rax,%rdi
  400508:	e8 83 05 00 00       	callq  400a90 <_ZdlPvm>
  40050d:	83 6d e4 01          	subl   $0x1,-0x1c(%rbp)
  400511:	eb d2                	jmp    4004e5 <main+0x288>
  400513:	48 8b 45 c8          	mov    -0x38(%rbp),%rax
  400517:	48 83 c0 68          	add    $0x68,%rax
  40051b:	48 89 c7             	mov    %rax,%rdi
  40051e:	e8 4b 01 00 00       	callq  40066e <_ZN4ListIP8ListItemE5clearEv>
  400523:	c7 45 e0 00 00 00 00 	movl   $0x0,-0x20(%rbp)
  40052a:	8b 45 e0             	mov    -0x20(%rbp),%eax
  40052d:	8d 50 01             	lea    0x1(%rax),%edx
  400530:	89 55 e0             	mov    %edx,-0x20(%rbp)
  400533:	48 63 c8             	movslq %eax,%rcx
  400536:	48 8d 95 b0 fe ff ff 	lea    -0x150(%rbp),%rdx
  40053d:	8b 45 ec             	mov    -0x14(%rbp),%eax
  400540:	48 89 ce             	mov    %rcx,%rsi
  400543:	89 c7                	mov    %eax,%edi
  400545:	e8 86 04 00 00       	callq  4009d0 <_Z13lemon_readdirimP12lemon_dirent>
  40054a:	85 c0                	test   %eax,%eax
  40054c:	0f 95 c0             	setne  %al
  40054f:	84 c0                	test   %al,%al
  400551:	74 38                	je     40058b <main+0x32e>
  400553:	48 8b 45 c8          	mov    -0x38(%rbp),%rax
  400557:	4c 8d 60 68          	lea    0x68(%rax),%r12
  40055b:	bf 20 00 00 00       	mov    $0x20,%edi
  400560:	e8 eb 04 00 00       	callq  400a50 <_Znwm>
  400565:	48 89 c3             	mov    %rax,%rbx
  400568:	48 8d 85 b0 fe ff ff 	lea    -0x150(%rbp),%rax
  40056f:	48 83 c0 04          	add    $0x4,%rax
  400573:	48 89 c6             	mov    %rax,%rsi
  400576:	48 89 df             	mov    %rbx,%rdi
  400579:	e8 92 12 00 00       	callq  401810 <_ZN8ListItemC1EPc>
  40057e:	48 89 de             	mov    %rbx,%rsi
  400581:	4c 89 e7             	mov    %r12,%rdi
  400584:	e8 65 01 00 00       	callq  4006ee <_ZN4ListIP8ListItemE8add_backES1_>
  400589:	eb 9f                	jmp    40052a <main+0x2cd>
  40058b:	48 8b 45 c8          	mov    -0x38(%rbp),%rax
  40058f:	48 89 c7             	mov    %rax,%rdi
  400592:	e8 79 13 00 00       	callq  401910 <_ZN8ListView14ResetScrollBarEv>
  400597:	e9 65 fd ff ff       	jmpq   400301 <main+0xa4>
  40059c:	90                   	nop
  40059d:	e9 5f fd ff ff       	jmpq   400301 <main+0xa4>

00000000004005a2 <_ZN10win_info_tC1Ev>:
  4005a2:	55                   	push   %rbp
  4005a3:	48 89 e5             	mov    %rsp,%rbp
  4005a6:	48 89 7d f8          	mov    %rdi,-0x8(%rbp)
  4005aa:	48 8b 45 f8          	mov    -0x8(%rbp),%rax
  4005ae:	66 c7 00 00 00       	movw   $0x0,(%rax)
  4005b3:	48 8b 45 f8          	mov    -0x8(%rbp),%rax
  4005b7:	66 c7 40 02 00 00    	movw   $0x0,0x2(%rax)
  4005bd:	48 8b 45 f8          	mov    -0x8(%rbp),%rax
  4005c1:	66 c7 40 04 00 00    	movw   $0x0,0x4(%rax)
  4005c7:	48 8b 45 f8          	mov    -0x8(%rbp),%rax
  4005cb:	66 c7 40 06 00 00    	movw   $0x0,0x6(%rax)
  4005d1:	90                   	nop
  4005d2:	5d                   	pop    %rbp
  4005d3:	c3                   	retq   

00000000004005d4 <_ZN4ListIP8ListItemE10get_lengthEv>:
  4005d4:	55                   	push   %rbp
  4005d5:	48 89 e5             	mov    %rsp,%rbp
  4005d8:	48 89 7d f8          	mov    %rdi,-0x8(%rbp)
  4005dc:	48 8b 45 f8          	mov    -0x8(%rbp),%rax
  4005e0:	8b 40 10             	mov    0x10(%rax),%eax
  4005e3:	5d                   	pop    %rbp
  4005e4:	c3                   	retq   
  4005e5:	90                   	nop

00000000004005e6 <_ZN4ListIP8ListItemE6get_atEj>:
  4005e6:	55                   	push   %rbp
  4005e7:	48 89 e5             	mov    %rsp,%rbp
  4005ea:	48 89 7d e8          	mov    %rdi,-0x18(%rbp)
  4005ee:	89 75 e4             	mov    %esi,-0x1c(%rbp)
  4005f1:	48 8b 45 e8          	mov    -0x18(%rbp),%rax
  4005f5:	8b 40 10             	mov    0x10(%rax),%eax
  4005f8:	85 c0                	test   %eax,%eax
  4005fa:	74 18                	je     400614 <_ZN4ListIP8ListItemE6get_atEj+0x2e>
  4005fc:	48 8b 45 e8          	mov    -0x18(%rbp),%rax
  400600:	8b 40 10             	mov    0x10(%rax),%eax
  400603:	39 45 e4             	cmp    %eax,-0x1c(%rbp)
  400606:	73 0c                	jae    400614 <_ZN4ListIP8ListItemE6get_atEj+0x2e>
  400608:	48 8b 45 e8          	mov    -0x18(%rbp),%rax
  40060c:	48 8b 00             	mov    (%rax),%rax
  40060f:	48 85 c0             	test   %rax,%rax
  400612:	75 0d                	jne    400621 <_ZN4ListIP8ListItemE6get_atEj+0x3b>
  400614:	48 8b 45 e8          	mov    -0x18(%rbp),%rax
  400618:	48 8b 00             	mov    (%rax),%rax
  40061b:	48 8b 40 10          	mov    0x10(%rax),%rax
  40061f:	eb 4b                	jmp    40066c <_ZN4ListIP8ListItemE6get_atEj+0x86>
  400621:	48 8b 45 e8          	mov    -0x18(%rbp),%rax
  400625:	48 8b 00             	mov    (%rax),%rax
  400628:	48 89 45 f8          	mov    %rax,-0x8(%rbp)
  40062c:	c7 45 f4 00 00 00 00 	movl   $0x0,-0xc(%rbp)
  400633:	8b 45 f4             	mov    -0xc(%rbp),%eax
  400636:	3b 45 e4             	cmp    -0x1c(%rbp),%eax
  400639:	73 29                	jae    400664 <_ZN4ListIP8ListItemE6get_atEj+0x7e>
  40063b:	48 8b 45 e8          	mov    -0x18(%rbp),%rax
  40063f:	8b 40 10             	mov    0x10(%rax),%eax
  400642:	39 45 f4             	cmp    %eax,-0xc(%rbp)
  400645:	73 1d                	jae    400664 <_ZN4ListIP8ListItemE6get_atEj+0x7e>
  400647:	48 8b 45 f8          	mov    -0x8(%rbp),%rax
  40064b:	48 8b 00             	mov    (%rax),%rax
  40064e:	48 85 c0             	test   %rax,%rax
  400651:	74 11                	je     400664 <_ZN4ListIP8ListItemE6get_atEj+0x7e>
  400653:	48 8b 45 f8          	mov    -0x8(%rbp),%rax
  400657:	48 8b 00             	mov    (%rax),%rax
  40065a:	48 89 45 f8          	mov    %rax,-0x8(%rbp)
  40065e:	83 45 f4 01          	addl   $0x1,-0xc(%rbp)
  400662:	eb cf                	jmp    400633 <_ZN4ListIP8ListItemE6get_atEj+0x4d>
  400664:	48 8b 45 f8          	mov    -0x8(%rbp),%rax
  400668:	48 8b 40 10          	mov    0x10(%rax),%rax
  40066c:	5d                   	pop    %rbp
  40066d:	c3                   	retq   

000000000040066e <_ZN4ListIP8ListItemE5clearEv>:
  40066e:	55                   	push   %rbp
  40066f:	48 89 e5             	mov    %rsp,%rbp
  400672:	48 83 ec 20          	sub    $0x20,%rsp
  400676:	48 89 7d e8          	mov    %rdi,-0x18(%rbp)
  40067a:	c7 45 fc 00 00 00 00 	movl   $0x0,-0x4(%rbp)
  400681:	48 8b 45 e8          	mov    -0x18(%rbp),%rax
  400685:	8b 50 10             	mov    0x10(%rax),%edx
  400688:	8b 45 fc             	mov    -0x4(%rbp),%eax
  40068b:	39 c2                	cmp    %eax,%edx
  40068d:	76 17                	jbe    4006a6 <_ZN4ListIP8ListItemE5clearEv+0x38>
  40068f:	8b 55 fc             	mov    -0x4(%rbp),%edx
  400692:	48 8b 45 e8          	mov    -0x18(%rbp),%rax
  400696:	89 d6                	mov    %edx,%esi
  400698:	48 89 c7             	mov    %rax,%rdi
  40069b:	e8 1c 01 00 00       	callq  4007bc <_ZN4ListIP8ListItemE9remove_atEj>
  4006a0:	83 45 fc 01          	addl   $0x1,-0x4(%rbp)
  4006a4:	eb db                	jmp    400681 <_ZN4ListIP8ListItemE5clearEv+0x13>
  4006a6:	48 8b 45 e8          	mov    -0x18(%rbp),%rax
  4006aa:	48 c7 00 00 00 00 00 	movq   $0x0,(%rax)
  4006b1:	48 8b 45 e8          	mov    -0x18(%rbp),%rax
  4006b5:	48 c7 40 08 00 00 00 	movq   $0x0,0x8(%rax)
  4006bc:	00 
  4006bd:	48 8b 45 e8          	mov    -0x18(%rbp),%rax
  4006c1:	c7 40 10 00 00 00 00 	movl   $0x0,0x10(%rax)
  4006c8:	90                   	nop
  4006c9:	c9                   	leaveq 
  4006ca:	c3                   	retq   
  4006cb:	90                   	nop

00000000004006cc <_ZN8ListNodeIP8ListItemEC1Ev>:
  4006cc:	55                   	push   %rbp
  4006cd:	48 89 e5             	mov    %rsp,%rbp
  4006d0:	48 89 7d f8          	mov    %rdi,-0x8(%rbp)
  4006d4:	48 8b 45 f8          	mov    -0x8(%rbp),%rax
  4006d8:	48 c7 00 00 00 00 00 	movq   $0x0,(%rax)
  4006df:	48 8b 45 f8          	mov    -0x8(%rbp),%rax
  4006e3:	48 c7 40 08 00 00 00 	movq   $0x0,0x8(%rax)
  4006ea:	00 
  4006eb:	90                   	nop
  4006ec:	5d                   	pop    %rbp
  4006ed:	c3                   	retq   

00000000004006ee <_ZN4ListIP8ListItemE8add_backES1_>:
  4006ee:	55                   	push   %rbp
  4006ef:	48 89 e5             	mov    %rsp,%rbp
  4006f2:	53                   	push   %rbx
  4006f3:	48 83 ec 28          	sub    $0x28,%rsp
  4006f7:	48 89 7d d8          	mov    %rdi,-0x28(%rbp)
  4006fb:	48 89 75 d0          	mov    %rsi,-0x30(%rbp)
  4006ff:	bf 18 00 00 00       	mov    $0x18,%edi
  400704:	e8 47 03 00 00       	callq  400a50 <_Znwm>
  400709:	48 89 c3             	mov    %rax,%rbx
  40070c:	48 c7 03 00 00 00 00 	movq   $0x0,(%rbx)
  400713:	48 c7 43 08 00 00 00 	movq   $0x0,0x8(%rbx)
  40071a:	00 
  40071b:	48 c7 43 10 00 00 00 	movq   $0x0,0x10(%rbx)
  400722:	00 
  400723:	48 89 df             	mov    %rbx,%rdi
  400726:	e8 a1 ff ff ff       	callq  4006cc <_ZN8ListNodeIP8ListItemEC1Ev>
  40072b:	48 89 5d e8          	mov    %rbx,-0x18(%rbp)
  40072f:	48 8b 45 e8          	mov    -0x18(%rbp),%rax
  400733:	48 c7 00 00 00 00 00 	movq   $0x0,(%rax)
  40073a:	48 8b 45 e8          	mov    -0x18(%rbp),%rax
  40073e:	48 c7 40 08 00 00 00 	movq   $0x0,0x8(%rax)
  400745:	00 
  400746:	48 8b 45 e8          	mov    -0x18(%rbp),%rax
  40074a:	48 8b 55 d0          	mov    -0x30(%rbp),%rdx
  40074e:	48 89 50 10          	mov    %rdx,0x10(%rax)
  400752:	48 8b 45 d8          	mov    -0x28(%rbp),%rax
  400756:	48 8b 00             	mov    (%rax),%rax
  400759:	48 85 c0             	test   %rax,%rax
  40075c:	75 0d                	jne    40076b <_ZN4ListIP8ListItemE8add_backES1_+0x7d>
  40075e:	48 8b 45 d8          	mov    -0x28(%rbp),%rax
  400762:	48 8b 55 e8          	mov    -0x18(%rbp),%rdx
  400766:	48 89 10             	mov    %rdx,(%rax)
  400769:	eb 2c                	jmp    400797 <_ZN4ListIP8ListItemE8add_backES1_+0xa9>
  40076b:	48 8b 45 d8          	mov    -0x28(%rbp),%rax
  40076f:	48 8b 40 08          	mov    0x8(%rax),%rax
  400773:	48 85 c0             	test   %rax,%rax
  400776:	74 1f                	je     400797 <_ZN4ListIP8ListItemE8add_backES1_+0xa9>
  400778:	48 8b 45 d8          	mov    -0x28(%rbp),%rax
  40077c:	48 8b 40 08          	mov    0x8(%rax),%rax
  400780:	48 8b 55 e8          	mov    -0x18(%rbp),%rdx
  400784:	48 89 10             	mov    %rdx,(%rax)
  400787:	48 8b 45 d8          	mov    -0x28(%rbp),%rax
  40078b:	48 8b 50 08          	mov    0x8(%rax),%rdx
  40078f:	48 8b 45 e8          	mov    -0x18(%rbp),%rax
  400793:	48 89 50 08          	mov    %rdx,0x8(%rax)
  400797:	48 8b 45 d8          	mov    -0x28(%rbp),%rax
  40079b:	48 8b 55 e8          	mov    -0x18(%rbp),%rdx
  40079f:	48 89 50 08          	mov    %rdx,0x8(%rax)
  4007a3:	48 8b 45 d8          	mov    -0x28(%rbp),%rax
  4007a7:	8b 40 10             	mov    0x10(%rax),%eax
  4007aa:	8d 50 01             	lea    0x1(%rax),%edx
  4007ad:	48 8b 45 d8          	mov    -0x28(%rbp),%rax
  4007b1:	89 50 10             	mov    %edx,0x10(%rax)
  4007b4:	90                   	nop
  4007b5:	48 83 c4 28          	add    $0x28,%rsp
  4007b9:	5b                   	pop    %rbx
  4007ba:	5d                   	pop    %rbp
  4007bb:	c3                   	retq   

00000000004007bc <_ZN4ListIP8ListItemE9remove_atEj>:
  4007bc:	55                   	push   %rbp
  4007bd:	48 89 e5             	mov    %rsp,%rbp
  4007c0:	48 83 ec 30          	sub    $0x30,%rsp
  4007c4:	48 89 7d d8          	mov    %rdi,-0x28(%rbp)
  4007c8:	89 75 d4             	mov    %esi,-0x2c(%rbp)
  4007cb:	48 8b 45 d8          	mov    -0x28(%rbp),%rax
  4007cf:	8b 40 10             	mov    0x10(%rax),%eax
  4007d2:	85 c0                	test   %eax,%eax
  4007d4:	74 0c                	je     4007e2 <_ZN4ListIP8ListItemE9remove_atEj+0x26>
  4007d6:	48 8b 45 d8          	mov    -0x28(%rbp),%rax
  4007da:	8b 40 10             	mov    0x10(%rax),%eax
  4007dd:	39 45 d4             	cmp    %eax,-0x2c(%rbp)
  4007e0:	72 09                	jb     4007eb <_ZN4ListIP8ListItemE9remove_atEj+0x2f>
  4007e2:	48 8b 45 e0          	mov    -0x20(%rbp),%rax
  4007e6:	e9 fc 00 00 00       	jmpq   4008e7 <_ZN4ListIP8ListItemE9remove_atEj+0x12b>
  4007eb:	48 8b 45 d8          	mov    -0x28(%rbp),%rax
  4007ef:	48 8b 00             	mov    (%rax),%rax
  4007f2:	48 89 45 f8          	mov    %rax,-0x8(%rbp)
  4007f6:	c7 45 f4 00 00 00 00 	movl   $0x0,-0xc(%rbp)
  4007fd:	8b 45 f4             	mov    -0xc(%rbp),%eax
  400800:	3b 45 d4             	cmp    -0x2c(%rbp),%eax
  400803:	73 29                	jae    40082e <_ZN4ListIP8ListItemE9remove_atEj+0x72>
  400805:	48 8b 45 d8          	mov    -0x28(%rbp),%rax
  400809:	8b 40 10             	mov    0x10(%rax),%eax
  40080c:	39 45 f4             	cmp    %eax,-0xc(%rbp)
  40080f:	73 1d                	jae    40082e <_ZN4ListIP8ListItemE9remove_atEj+0x72>
  400811:	48 8b 45 f8          	mov    -0x8(%rbp),%rax
  400815:	48 8b 00             	mov    (%rax),%rax
  400818:	48 85 c0             	test   %rax,%rax
  40081b:	74 11                	je     40082e <_ZN4ListIP8ListItemE9remove_atEj+0x72>
  40081d:	48 8b 45 f8          	mov    -0x8(%rbp),%rax
  400821:	48 8b 00             	mov    (%rax),%rax
  400824:	48 89 45 f8          	mov    %rax,-0x8(%rbp)
  400828:	83 45 f4 01          	addl   $0x1,-0xc(%rbp)
  40082c:	eb cf                	jmp    4007fd <_ZN4ListIP8ListItemE9remove_atEj+0x41>
  40082e:	48 8b 45 f8          	mov    -0x8(%rbp),%rax
  400832:	48 8b 40 10          	mov    0x10(%rax),%rax
  400836:	48 89 45 e8          	mov    %rax,-0x18(%rbp)
  40083a:	48 8b 45 f8          	mov    -0x8(%rbp),%rax
  40083e:	48 8b 00             	mov    (%rax),%rax
  400841:	48 85 c0             	test   %rax,%rax
  400844:	74 20                	je     400866 <_ZN4ListIP8ListItemE9remove_atEj+0xaa>
  400846:	48 8b 45 f8          	mov    -0x8(%rbp),%rax
  40084a:	48 8b 40 08          	mov    0x8(%rax),%rax
  40084e:	48 85 c0             	test   %rax,%rax
  400851:	74 13                	je     400866 <_ZN4ListIP8ListItemE9remove_atEj+0xaa>
  400853:	48 8b 45 f8          	mov    -0x8(%rbp),%rax
  400857:	48 8b 00             	mov    (%rax),%rax
  40085a:	48 8b 55 f8          	mov    -0x8(%rbp),%rdx
  40085e:	48 8b 52 08          	mov    0x8(%rdx),%rdx
  400862:	48 89 50 08          	mov    %rdx,0x8(%rax)
  400866:	48 8b 45 f8          	mov    -0x8(%rbp),%rax
  40086a:	48 8b 40 08          	mov    0x8(%rax),%rax
  40086e:	48 85 c0             	test   %rax,%rax
  400871:	74 1e                	je     400891 <_ZN4ListIP8ListItemE9remove_atEj+0xd5>
  400873:	48 8b 45 f8          	mov    -0x8(%rbp),%rax
  400877:	48 8b 00             	mov    (%rax),%rax
  40087a:	48 85 c0             	test   %rax,%rax
  40087d:	74 12                	je     400891 <_ZN4ListIP8ListItemE9remove_atEj+0xd5>
  40087f:	48 8b 45 f8          	mov    -0x8(%rbp),%rax
  400883:	48 8b 40 08          	mov    0x8(%rax),%rax
  400887:	48 8b 55 f8          	mov    -0x8(%rbp),%rdx
  40088b:	48 8b 12             	mov    (%rdx),%rdx
  40088e:	48 89 10             	mov    %rdx,(%rax)
  400891:	83 7d d4 00          	cmpl   $0x0,-0x2c(%rbp)
  400895:	75 0e                	jne    4008a5 <_ZN4ListIP8ListItemE9remove_atEj+0xe9>
  400897:	48 8b 45 f8          	mov    -0x8(%rbp),%rax
  40089b:	48 8b 10             	mov    (%rax),%rdx
  40089e:	48 8b 45 d8          	mov    -0x28(%rbp),%rax
  4008a2:	48 89 10             	mov    %rdx,(%rax)
  4008a5:	48 8b 45 d8          	mov    -0x28(%rbp),%rax
  4008a9:	8b 40 10             	mov    0x10(%rax),%eax
  4008ac:	8d 50 ff             	lea    -0x1(%rax),%edx
  4008af:	48 8b 45 d8          	mov    -0x28(%rbp),%rax
  4008b3:	89 50 10             	mov    %edx,0x10(%rax)
  4008b6:	48 8b 45 d8          	mov    -0x28(%rbp),%rax
  4008ba:	8b 40 10             	mov    0x10(%rax),%eax
  4008bd:	39 45 d4             	cmp    %eax,-0x2c(%rbp)
  4008c0:	0f 94 c0             	sete   %al
  4008c3:	84 c0                	test   %al,%al
  4008c5:	74 10                	je     4008d7 <_ZN4ListIP8ListItemE9remove_atEj+0x11b>
  4008c7:	48 8b 45 f8          	mov    -0x8(%rbp),%rax
  4008cb:	48 8b 50 08          	mov    0x8(%rax),%rdx
  4008cf:	48 8b 45 d8          	mov    -0x28(%rbp),%rax
  4008d3:	48 89 50 08          	mov    %rdx,0x8(%rax)
  4008d7:	48 8b 45 f8          	mov    -0x8(%rbp),%rax
  4008db:	48 89 c7             	mov    %rax,%rdi
  4008de:	e8 4b b7 00 00       	callq  40c02e <free>
  4008e3:	48 8b 45 e8          	mov    -0x18(%rbp),%rax
  4008e7:	c9                   	leaveq 
  4008e8:	c3                   	retq   
  4008e9:	0f 1f 80 00 00 00 00 	nopl   0x0(%rax)

00000000004008f0 <_Z10lemon_openPKci>:
  4008f0:	48 83 ec 18          	sub    $0x18,%rsp
  4008f4:	48 89 fe             	mov    %rdi,%rsi
  4008f7:	45 31 c9             	xor    %r9d,%r9d
  4008fa:	45 31 c0             	xor    %r8d,%r8d
  4008fd:	48 8d 54 24 0c       	lea    0xc(%rsp),%rdx
  400902:	31 c9                	xor    %ecx,%ecx
  400904:	bf 05 00 00 00       	mov    $0x5,%edi
  400909:	e8 ff 21 00 00       	callq  402b0d <syscall>
  40090e:	8b 44 24 0c          	mov    0xc(%rsp),%eax
  400912:	48 83 c4 18          	add    $0x18,%rsp
  400916:	c3                   	retq   
  400917:	66 0f 1f 84 00 00 00 	nopw   0x0(%rax,%rax,1)
  40091e:	00 00 

0000000000400920 <_Z11lemon_closei>:
  400920:	48 63 f7             	movslq %edi,%rsi
  400923:	45 31 c9             	xor    %r9d,%r9d
  400926:	45 31 c0             	xor    %r8d,%r8d
  400929:	31 c9                	xor    %ecx,%ecx
  40092b:	31 d2                	xor    %edx,%edx
  40092d:	bf 06 00 00 00       	mov    $0x6,%edi
  400932:	e9 d6 21 00 00       	jmpq   402b0d <syscall>
  400937:	66 0f 1f 84 00 00 00 	nopw   0x0(%rax,%rax,1)
  40093e:	00 00 

0000000000400940 <_Z10lemon_readiPvm>:
  400940:	48 83 ec 18          	sub    $0x18,%rsp
  400944:	48 89 f0             	mov    %rsi,%rax
  400947:	48 89 d1             	mov    %rdx,%rcx
  40094a:	48 63 f7             	movslq %edi,%rsi
  40094d:	4c 8d 44 24 0c       	lea    0xc(%rsp),%r8
  400952:	48 89 c2             	mov    %rax,%rdx
  400955:	45 31 c9             	xor    %r9d,%r9d
  400958:	bf 03 00 00 00       	mov    $0x3,%edi
  40095d:	e8 ab 21 00 00       	callq  402b0d <syscall>
  400962:	8b 44 24 0c          	mov    0xc(%rsp),%eax
  400966:	48 83 c4 18          	add    $0x18,%rsp
  40096a:	c3                   	retq   
  40096b:	0f 1f 44 00 00       	nopl   0x0(%rax,%rax,1)

0000000000400970 <_Z11lemon_writeiPKvm>:
  400970:	48 83 ec 18          	sub    $0x18,%rsp
  400974:	48 89 f0             	mov    %rsi,%rax
  400977:	48 89 d1             	mov    %rdx,%rcx
  40097a:	48 63 f7             	movslq %edi,%rsi
  40097d:	4c 8d 44 24 0c       	lea    0xc(%rsp),%r8
  400982:	48 89 c2             	mov    %rax,%rdx
  400985:	45 31 c9             	xor    %r9d,%r9d
  400988:	bf 04 00 00 00       	mov    $0x4,%edi
  40098d:	e8 7b 21 00 00       	callq  402b0d <syscall>
  400992:	8b 44 24 0c          	mov    0xc(%rsp),%eax
  400996:	48 83 c4 18          	add    $0x18,%rsp
  40099a:	c3                   	retq   
  40099b:	0f 1f 44 00 00       	nopl   0x0(%rax,%rax,1)

00000000004009a0 <_Z10lemon_seekili>:
  4009a0:	48 83 ec 18          	sub    $0x18,%rsp
  4009a4:	48 89 f0             	mov    %rsi,%rax
  4009a7:	48 63 ca             	movslq %edx,%rcx
  4009aa:	48 63 f7             	movslq %edi,%rsi
  4009ad:	4c 8d 44 24 08       	lea    0x8(%rsp),%r8
  4009b2:	48 89 c2             	mov    %rax,%rdx
  4009b5:	45 31 c9             	xor    %r9d,%r9d
  4009b8:	bf 13 00 00 00       	mov    $0x13,%edi
  4009bd:	e8 4b 21 00 00       	callq  402b0d <syscall>
  4009c2:	48 8b 44 24 08       	mov    0x8(%rsp),%rax
  4009c7:	48 83 c4 18          	add    $0x18,%rsp
  4009cb:	c3                   	retq   
  4009cc:	0f 1f 40 00          	nopl   0x0(%rax)

00000000004009d0 <_Z13lemon_readdirimP12lemon_dirent>:
  4009d0:	48 83 ec 18          	sub    $0x18,%rsp
  4009d4:	48 89 f1             	mov    %rsi,%rcx
  4009d7:	45 31 c9             	xor    %r9d,%r9d
  4009da:	48 63 f7             	movslq %edi,%rsi
  4009dd:	4c 8d 44 24 08       	lea    0x8(%rsp),%r8
  4009e2:	bf 21 00 00 00       	mov    $0x21,%edi
  4009e7:	e8 21 21 00 00       	callq  402b0d <syscall>
  4009ec:	8b 44 24 08          	mov    0x8(%rsp),%eax
  4009f0:	48 83 c4 18          	add    $0x18,%rsp
  4009f4:	c3                   	retq   
  4009f5:	66 2e 0f 1f 84 00 00 	nopw   %cs:0x0(%rax,%rax,1)
  4009fc:	00 00 00 
  4009ff:	90                   	nop

0000000000400a00 <_Z14ReceiveMessageP13ipc_message_t>:
  400a00:	48 83 ec 18          	sub    $0x18,%rsp
  400a04:	48 89 fe             	mov    %rdi,%rsi
  400a07:	45 31 c9             	xor    %r9d,%r9d
  400a0a:	45 31 c0             	xor    %r8d,%r8d
  400a0d:	48 8d 54 24 08       	lea    0x8(%rsp),%rdx
  400a12:	31 c9                	xor    %ecx,%ecx
  400a14:	bf 1d 00 00 00       	mov    $0x1d,%edi
  400a19:	e8 ef 20 00 00       	callq  402b0d <syscall>
  400a1e:	48 8b 44 24 08       	mov    0x8(%rsp),%rax
  400a23:	48 83 c4 18          	add    $0x18,%rsp
  400a27:	c3                   	retq   
  400a28:	0f 1f 84 00 00 00 00 	nopl   0x0(%rax,%rax,1)
  400a2f:	00 

0000000000400a30 <_Z11SendMessagem13ipc_message_t>:
  400a30:	4c 8b 44 24 28       	mov    0x28(%rsp),%r8
  400a35:	48 8b 4c 24 20       	mov    0x20(%rsp),%rcx
  400a3a:	48 89 fe             	mov    %rdi,%rsi
  400a3d:	45 31 c9             	xor    %r9d,%r9d
  400a40:	48 8b 54 24 18       	mov    0x18(%rsp),%rdx
  400a45:	bf 1c 00 00 00       	mov    $0x1c,%edi
  400a4a:	e9 be 20 00 00       	jmpq   402b0d <syscall>
  400a4f:	90                   	nop

0000000000400a50 <_Znwm>:
  400a50:	48 85 ff             	test   %rdi,%rdi
  400a53:	b8 01 00 00 00       	mov    $0x1,%eax
  400a58:	48 0f 44 f8          	cmove  %rax,%rdi
  400a5c:	e9 c9 b6 00 00       	jmpq   40c12a <malloc>
  400a61:	66 66 2e 0f 1f 84 00 	data16 nopw %cs:0x0(%rax,%rax,1)
  400a68:	00 00 00 00 
  400a6c:	0f 1f 40 00          	nopl   0x0(%rax)

0000000000400a70 <_Znam>:
  400a70:	e9 b5 b6 00 00       	jmpq   40c12a <malloc>
  400a75:	66 66 2e 0f 1f 84 00 	data16 nopw %cs:0x0(%rax,%rax,1)
  400a7c:	00 00 00 00 

0000000000400a80 <_ZdlPv>:
  400a80:	e9 a9 b5 00 00       	jmpq   40c02e <free>
  400a85:	66 66 2e 0f 1f 84 00 	data16 nopw %cs:0x0(%rax,%rax,1)
  400a8c:	00 00 00 00 

0000000000400a90 <_ZdlPvm>:
  400a90:	e9 eb ff ff ff       	jmpq   400a80 <_ZdlPv>
  400a95:	66 66 2e 0f 1f 84 00 	data16 nopw %cs:0x0(%rax,%rax,1)
  400a9c:	00 00 00 00 

0000000000400aa0 <_ZdaPv>:
  400aa0:	e9 89 b5 00 00       	jmpq   40c02e <free>
  400aa5:	66 66 2e 0f 1f 84 00 	data16 nopw %cs:0x0(%rax,%rax,1)
  400aac:	00 00 00 00 

0000000000400ab0 <_ZdaPvm>:
  400ab0:	e9 79 b5 00 00       	jmpq   40c02e <free>
  400ab5:	66 2e 0f 1f 84 00 00 	nopw   %cs:0x0(%rax,%rax,1)
  400abc:	00 00 00 
  400abf:	90                   	nop

0000000000400ac0 <_ZN6Widget5PaintEP7Surface>:
  400ac0:	c3                   	retq   
  400ac1:	90                   	nop
  400ac2:	66 66 2e 0f 1f 84 00 	data16 nopw %cs:0x0(%rax,%rax,1)
  400ac9:	00 00 00 00 
  400acd:	0f 1f 00             	nopl   (%rax)

0000000000400ad0 <_ZN10ScrollView11OnMouseDownE8Vector2i>:
  400ad0:	c3                   	retq   
  400ad1:	90                   	nop
  400ad2:	66 66 2e 0f 1f 84 00 	data16 nopw %cs:0x0(%rax,%rax,1)
  400ad9:	00 00 00 00 
  400add:	0f 1f 00             	nopl   (%rax)

0000000000400ae0 <_ZN7TextBox11OnMouseDownE8Vector2i>:
  400ae0:	c6 47 1a 01          	movb   $0x1,0x1a(%rdi)
  400ae4:	c3                   	retq   
  400ae5:	90                   	nop
  400ae6:	66 2e 0f 1f 84 00 00 	nopw   %cs:0x0(%rax,%rax,1)
  400aed:	00 00 00 

0000000000400af0 <_ZN6Button11OnMouseDownE8Vector2i>:
  400af0:	c6 47 19 01          	movb   $0x1,0x19(%rdi)
  400af4:	c3                   	retq   
  400af5:	90                   	nop
  400af6:	66 2e 0f 1f 84 00 00 	nopw   %cs:0x0(%rax,%rax,1)
  400afd:	00 00 00 

0000000000400b00 <_ZN6Button9OnMouseUpE8Vector2i>:
  400b00:	c6 47 19 00          	movb   $0x0,0x19(%rdi)
  400b04:	c3                   	retq   
  400b05:	90                   	nop
  400b06:	66 2e 0f 1f 84 00 00 	nopw   %cs:0x0(%rax,%rax,1)
  400b0d:	00 00 00 

0000000000400b10 <_ZN7TextBox5PaintEP7Surface>:
  400b10:	41 57                	push   %r15
  400b12:	41 b9 ff 00 00 00    	mov    $0xff,%r9d
  400b18:	41 b8 ff 00 00 00    	mov    $0xff,%r8d
  400b1e:	41 56                	push   %r14
  400b20:	49 89 f6             	mov    %rsi,%r14
  400b23:	41 55                	push   %r13
  400b25:	45 31 ed             	xor    %r13d,%r13d
  400b28:	41 54                	push   %r12
  400b2a:	45 31 e4             	xor    %r12d,%r12d
  400b2d:	55                   	push   %rbp
  400b2e:	31 ed                	xor    %ebp,%ebp
  400b30:	53                   	push   %rbx
  400b31:	48 89 fb             	mov    %rdi,%rbx
  400b34:	4c 8d 7b 1b          	lea    0x1b(%rbx),%r15
  400b38:	48 83 ec 08          	sub    $0x8,%rsp
  400b3c:	8b 77 0c             	mov    0xc(%rdi),%esi
  400b3f:	8b 4f 14             	mov    0x14(%rdi),%ecx
  400b42:	8b 57 10             	mov    0x10(%rdi),%edx
  400b45:	8b 7f 08             	mov    0x8(%rdi),%edi
  400b48:	41 56                	push   %r14
  400b4a:	68 ff 00 00 00       	pushq  $0xff
  400b4f:	e8 4c 15 00 00       	callq  4020a0 <_Z8DrawRectiiiihhhP7Surface>
  400b54:	5e                   	pop    %rsi
  400b55:	5f                   	pop    %rdi
  400b56:	eb 14                	jmp    400b6c <_ZN7TextBox5PaintEP7Surface+0x5c>
  400b58:	0f 1f 84 00 00 00 00 	nopl   0x0(%rax,%rax,1)
  400b5f:	00 
  400b60:	42 80 7c 23 1b 0a    	cmpb   $0xa,0x1b(%rbx,%r12,1)
  400b66:	74 53                	je     400bbb <_ZN7TextBox5PaintEP7Surface+0xab>
  400b68:	49 83 c4 01          	add    $0x1,%r12
  400b6c:	4c 89 ff             	mov    %r15,%rdi
  400b6f:	e8 10 a1 00 00       	callq  40ac84 <strlen>
  400b74:	4c 39 e0             	cmp    %r12,%rax
  400b77:	76 4f                	jbe    400bc8 <_ZN7TextBox5PaintEP7Surface+0xb8>
  400b79:	48 83 ec 08          	sub    $0x8,%rsp
  400b7d:	8b 53 0c             	mov    0xc(%rbx),%edx
  400b80:	8b 73 08             	mov    0x8(%rbx),%esi
  400b83:	42 0f be 7c 23 1b    	movsbl 0x1b(%rbx,%r12,1),%edi
  400b89:	41 56                	push   %r14
  400b8b:	0f b6 8b 28 01 00 00 	movzbl 0x128(%rbx),%ecx
  400b92:	44 0f b6 8b 2a 01 00 	movzbl 0x12a(%rbx),%r9d
  400b99:	00 
  400b9a:	44 01 ea             	add    %r13d,%edx
  400b9d:	01 ee                	add    %ebp,%esi
  400b9f:	44 0f b6 83 29 01 00 	movzbl 0x129(%rbx),%r8d
  400ba6:	00 
  400ba7:	83 c5 08             	add    $0x8,%ebp
  400baa:	e8 91 1c 00 00       	callq  402840 <_Z8DrawCharciihhhP7Surface>
  400baf:	8b 43 10             	mov    0x10(%rbx),%eax
  400bb2:	5a                   	pop    %rdx
  400bb3:	59                   	pop    %rcx
  400bb4:	83 e8 17             	sub    $0x17,%eax
  400bb7:	39 e8                	cmp    %ebp,%eax
  400bb9:	7f a5                	jg     400b60 <_ZN7TextBox5PaintEP7Surface+0x50>
  400bbb:	41 83 c5 0c          	add    $0xc,%r13d
  400bbf:	31 ed                	xor    %ebp,%ebp
  400bc1:	eb a5                	jmp    400b68 <_ZN7TextBox5PaintEP7Surface+0x58>
  400bc3:	0f 1f 44 00 00       	nopl   0x0(%rax,%rax,1)
  400bc8:	41 56                	push   %r14
  400bca:	8d 7d 01             	lea    0x1(%rbp),%edi
  400bcd:	44 89 ee             	mov    %r13d,%esi
  400bd0:	45 31 c9             	xor    %r9d,%r9d
  400bd3:	6a 00                	pushq  $0x0
  400bd5:	45 31 c0             	xor    %r8d,%r8d
  400bd8:	b9 0c 00 00 00       	mov    $0xc,%ecx
  400bdd:	ba 02 00 00 00       	mov    $0x2,%edx
  400be2:	e8 b9 14 00 00       	callq  4020a0 <_Z8DrawRectiiiihhhP7Surface>
  400be7:	8b 43 10             	mov    0x10(%rbx),%eax
  400bea:	41 56                	push   %r14
  400bec:	41 b9 f0 00 00 00    	mov    $0xf0,%r9d
  400bf2:	68 f0 00 00 00       	pushq  $0xf0
  400bf7:	8b 4b 14             	mov    0x14(%rbx),%ecx
  400bfa:	41 b8 f0 00 00 00    	mov    $0xf0,%r8d
  400c00:	31 f6                	xor    %esi,%esi
  400c02:	8d 78 f0             	lea    -0x10(%rax),%edi
  400c05:	ba 10 00 00 00       	mov    $0x10,%edx
  400c0a:	e8 91 14 00 00       	callq  4020a0 <_Z8DrawRectiiiihhhP7Surface>
  400c0f:	48 83 c4 20          	add    $0x20,%rsp
  400c13:	8b 43 10             	mov    0x10(%rbx),%eax
  400c16:	41 b9 80 00 00 00    	mov    $0x80,%r9d
  400c1c:	41 56                	push   %r14
  400c1e:	41 b8 80 00 00 00    	mov    $0x80,%r8d
  400c24:	b9 0c 00 00 00       	mov    $0xc,%ecx
  400c29:	ba 0c 00 00 00       	mov    $0xc,%edx
  400c2e:	68 c0 00 00 00       	pushq  $0xc0
  400c33:	8d 78 f2             	lea    -0xe(%rax),%edi
  400c36:	be 02 00 00 00       	mov    $0x2,%esi
  400c3b:	e8 60 14 00 00       	callq  4020a0 <_Z8DrawRectiiiihhhP7Surface>
  400c40:	41 56                	push   %r14
  400c42:	8b 43 14             	mov    0x14(%rbx),%eax
  400c45:	41 b9 80 00 00 00    	mov    $0x80,%r9d
  400c4b:	8b 7b 10             	mov    0x10(%rbx),%edi
  400c4e:	68 c0 00 00 00       	pushq  $0xc0
  400c53:	41 b8 80 00 00 00    	mov    $0x80,%r8d
  400c59:	b9 0c 00 00 00       	mov    $0xc,%ecx
  400c5e:	8d 70 f2             	lea    -0xe(%rax),%esi
  400c61:	ba 0c 00 00 00       	mov    $0xc,%edx
  400c66:	83 ef 0e             	sub    $0xe,%edi
  400c69:	e8 32 14 00 00       	callq  4020a0 <_Z8DrawRectiiiihhhP7Surface>
  400c6e:	48 83 c4 28          	add    $0x28,%rsp
  400c72:	5b                   	pop    %rbx
  400c73:	5d                   	pop    %rbp
  400c74:	41 5c                	pop    %r12
  400c76:	41 5d                	pop    %r13
  400c78:	41 5e                	pop    %r14
  400c7a:	41 5f                	pop    %r15
  400c7c:	c3                   	retq   
  400c7d:	90                   	nop
  400c7e:	66 90                	xchg   %ax,%ax

0000000000400c80 <_ZN5Label5PaintEP7Surface>:
  400c80:	41 56                	push   %r14
  400c82:	49 89 f6             	mov    %rsi,%r14
  400c85:	41 55                	push   %r13
  400c87:	45 31 ed             	xor    %r13d,%r13d
  400c8a:	41 54                	push   %r12
  400c8c:	45 31 e4             	xor    %r12d,%r12d
  400c8f:	55                   	push   %rbp
  400c90:	31 ed                	xor    %ebp,%ebp
  400c92:	53                   	push   %rbx
  400c93:	48 89 fb             	mov    %rdi,%rbx
  400c96:	48 8b 7f 18          	mov    0x18(%rdi),%rdi
  400c9a:	eb 0f                	jmp    400cab <_ZN5Label5PaintEP7Surface+0x2b>
  400c9c:	0f 1f 40 00          	nopl   0x0(%rax)
  400ca0:	42 80 3c 27 0a       	cmpb   $0xa,(%rdi,%r12,1)
  400ca5:	74 48                	je     400cef <_ZN5Label5PaintEP7Surface+0x6f>
  400ca7:	49 83 c4 01          	add    $0x1,%r12
  400cab:	e8 d4 9f 00 00       	callq  40ac84 <strlen>
  400cb0:	4c 39 e0             	cmp    %r12,%rax
  400cb3:	76 4b                	jbe    400d00 <_ZN5Label5PaintEP7Surface+0x80>
  400cb5:	48 8b 43 18          	mov    0x18(%rbx),%rax
  400cb9:	48 83 ec 08          	sub    $0x8,%rsp
  400cbd:	8b 53 0c             	mov    0xc(%rbx),%edx
  400cc0:	31 c9                	xor    %ecx,%ecx
  400cc2:	8b 73 08             	mov    0x8(%rbx),%esi
  400cc5:	45 31 c9             	xor    %r9d,%r9d
  400cc8:	45 31 c0             	xor    %r8d,%r8d
  400ccb:	42 0f be 3c 20       	movsbl (%rax,%r12,1),%edi
  400cd0:	41 56                	push   %r14
  400cd2:	44 01 ea             	add    %r13d,%edx
  400cd5:	01 ee                	add    %ebp,%esi
  400cd7:	83 c5 08             	add    $0x8,%ebp
  400cda:	e8 61 1b 00 00       	callq  402840 <_Z8DrawCharciihhhP7Surface>
  400cdf:	8b 43 10             	mov    0x10(%rbx),%eax
  400ce2:	5a                   	pop    %rdx
  400ce3:	48 8b 7b 18          	mov    0x18(%rbx),%rdi
  400ce7:	59                   	pop    %rcx
  400ce8:	83 e8 07             	sub    $0x7,%eax
  400ceb:	39 e8                	cmp    %ebp,%eax
  400ced:	7f b1                	jg     400ca0 <_ZN5Label5PaintEP7Surface+0x20>
  400cef:	41 83 c5 0c          	add    $0xc,%r13d
  400cf3:	31 ed                	xor    %ebp,%ebp
  400cf5:	eb b0                	jmp    400ca7 <_ZN5Label5PaintEP7Surface+0x27>
  400cf7:	66 0f 1f 84 00 00 00 	nopw   0x0(%rax,%rax,1)
  400cfe:	00 00 
  400d00:	5b                   	pop    %rbx
  400d01:	5d                   	pop    %rbp
  400d02:	41 5c                	pop    %r12
  400d04:	41 5d                	pop    %r13
  400d06:	41 5e                	pop    %r14
  400d08:	c3                   	retq   
  400d09:	90                   	nop
  400d0a:	66 0f 1f 44 00 00    	nopw   0x0(%rax,%rax,1)

0000000000400d10 <_ZN6Bitmap5PaintEP7Surface>:
  400d10:	8b 47 24             	mov    0x24(%rdi),%eax
  400d13:	85 c0                	test   %eax,%eax
  400d15:	7e 69                	jle    400d80 <_ZN6Bitmap5PaintEP7Surface+0x70>
  400d17:	41 54                	push   %r12
  400d19:	49 89 f4             	mov    %rsi,%r12
  400d1c:	55                   	push   %rbp
  400d1d:	31 ed                	xor    %ebp,%ebp
  400d1f:	53                   	push   %rbx
  400d20:	48 89 fb             	mov    %rdi,%rbx
  400d23:	0f 1f 44 00 00       	nopl   0x0(%rax,%rax,1)
  400d28:	8b 43 10             	mov    0x10(%rbx),%eax
  400d2b:	8b 7b 0c             	mov    0xc(%rbx),%edi
  400d2e:	8d 14 85 00 00 00 00 	lea    0x0(,%rax,4),%edx
  400d35:	01 ef                	add    %ebp,%edi
  400d37:	0f af c5             	imul   %ebp,%eax
  400d3a:	48 63 d2             	movslq %edx,%rdx
  400d3d:	83 c5 01             	add    $0x1,%ebp
  400d40:	41 0f af 7c 24 08    	imul   0x8(%r12),%edi
  400d46:	8d 34 85 00 00 00 00 	lea    0x0(,%rax,4),%esi
  400d4d:	8b 43 08             	mov    0x8(%rbx),%eax
  400d50:	c1 e7 02             	shl    $0x2,%edi
  400d53:	48 63 f6             	movslq %esi,%rsi
  400d56:	48 03 73 30          	add    0x30(%rbx),%rsi
  400d5a:	c1 e0 02             	shl    $0x2,%eax
  400d5d:	48 63 ff             	movslq %edi,%rdi
  400d60:	48 98                	cltq   
  400d62:	48 01 c7             	add    %rax,%rdi
  400d65:	49 03 7c 24 18       	add    0x18(%r12),%rdi
  400d6a:	e8 12 9e 00 00       	callq  40ab81 <memcpy>
  400d6f:	39 6b 24             	cmp    %ebp,0x24(%rbx)
  400d72:	7f b4                	jg     400d28 <_ZN6Bitmap5PaintEP7Surface+0x18>
  400d74:	5b                   	pop    %rbx
  400d75:	5d                   	pop    %rbp
  400d76:	41 5c                	pop    %r12
  400d78:	c3                   	retq   
  400d79:	0f 1f 80 00 00 00 00 	nopl   0x0(%rax)
  400d80:	c3                   	retq   
  400d81:	90                   	nop
  400d82:	66 66 2e 0f 1f 84 00 	data16 nopw %cs:0x0(%rax,%rax,1)
  400d89:	00 00 00 00 
  400d8d:	0f 1f 00             	nopl   (%rax)

0000000000400d90 <_ZN8ListView5PaintEP7Surface>:
  400d90:	41 55                	push   %r13
  400d92:	41 54                	push   %r12
  400d94:	49 89 f4             	mov    %rsi,%r12
  400d97:	55                   	push   %rbp
  400d98:	31 ed                	xor    %ebp,%ebp
  400d9a:	53                   	push   %rbx
  400d9b:	48 89 fb             	mov    %rdi,%rbx
  400d9e:	48 83 ec 08          	sub    $0x8,%rsp
  400da2:	8b 4f 78             	mov    0x78(%rdi),%ecx
  400da5:	85 c9                	test   %ecx,%ecx
  400da7:	0f 8e b6 00 00 00    	jle    400e63 <_ZN8ListView5PaintEP7Surface+0xd3>
  400dad:	0f 1f 00             	nopl   (%rax)
  400db0:	48 8b 43 68          	mov    0x68(%rbx),%rax
  400db4:	48 85 c0             	test   %rax,%rax
  400db7:	40 0f 94 c6          	sete   %sil
  400dbb:	85 c9                	test   %ecx,%ecx
  400dbd:	0f 94 c2             	sete   %dl
  400dc0:	40 08 d6             	or     %dl,%sil
  400dc3:	0f 85 ff 00 00 00    	jne    400ec8 <_ZN8ListView5PaintEP7Surface+0x138>
  400dc9:	39 e9                	cmp    %ebp,%ecx
  400dcb:	0f 86 f7 00 00 00    	jbe    400ec8 <_ZN8ListView5PaintEP7Surface+0x138>
  400dd1:	85 ed                	test   %ebp,%ebp
  400dd3:	0f 84 3f 01 00 00    	je     400f18 <_ZN8ListView5PaintEP7Surface+0x188>
  400dd9:	48 8b 30             	mov    (%rax),%rsi
  400ddc:	48 85 f6             	test   %rsi,%rsi
  400ddf:	0f 84 33 01 00 00    	je     400f18 <_ZN8ListView5PaintEP7Surface+0x188>
  400de5:	31 c0                	xor    %eax,%eax
  400de7:	eb 16                	jmp    400dff <_ZN8ListView5PaintEP7Surface+0x6f>
  400de9:	0f 1f 80 00 00 00 00 	nopl   0x0(%rax)
  400df0:	39 c8                	cmp    %ecx,%eax
  400df2:	73 12                	jae    400e06 <_ZN8ListView5PaintEP7Surface+0x76>
  400df4:	48 8b 16             	mov    (%rsi),%rdx
  400df7:	48 85 d2             	test   %rdx,%rdx
  400dfa:	74 0a                	je     400e06 <_ZN8ListView5PaintEP7Surface+0x76>
  400dfc:	48 89 d6             	mov    %rdx,%rsi
  400dff:	83 c0 01             	add    $0x1,%eax
  400e02:	39 e8                	cmp    %ebp,%eax
  400e04:	72 ea                	jb     400df0 <_ZN8ListView5PaintEP7Surface+0x60>
  400e06:	8b 53 18             	mov    0x18(%rbx),%edx
  400e09:	4c 8b 6e 10          	mov    0x10(%rsi),%r13
  400e0d:	89 ee                	mov    %ebp,%esi
  400e0f:	8b 43 60             	mov    0x60(%rbx),%eax
  400e12:	0f af f2             	imul   %edx,%esi
  400e15:	39 6b 64             	cmp    %ebp,0x64(%rbx)
  400e18:	0f 84 c2 00 00 00    	je     400ee0 <_ZN8ListView5PaintEP7Surface+0x150>
  400e1e:	89 d1                	mov    %edx,%ecx
  400e20:	0f af 43 20          	imul   0x20(%rbx),%eax
  400e24:	03 73 0c             	add    0xc(%rbx),%esi
  400e27:	48 83 ec 08          	sub    $0x8,%rsp
  400e2b:	c1 e9 1f             	shr    $0x1f,%ecx
  400e2e:	49 8b 7d 18          	mov    0x18(%r13),%rdi
  400e32:	41 54                	push   %r12
  400e34:	45 31 c9             	xor    %r9d,%r9d
  400e37:	01 d1                	add    %edx,%ecx
  400e39:	45 31 c0             	xor    %r8d,%r8d
  400e3c:	83 c5 01             	add    $0x1,%ebp
  400e3f:	d1 f9                	sar    %ecx
  400e41:	01 c0                	add    %eax,%eax
  400e43:	8d 54 0e fa          	lea    -0x6(%rsi,%rcx,1),%edx
  400e47:	31 c9                	xor    %ecx,%ecx
  400e49:	29 c2                	sub    %eax,%edx
  400e4b:	8b 43 08             	mov    0x8(%rbx),%eax
  400e4e:	8d 70 04             	lea    0x4(%rax),%esi
  400e51:	e8 4a 1c 00 00       	callq  402aa0 <_Z10DrawStringPcjjhhhP7Surface>
  400e56:	8b 4b 78             	mov    0x78(%rbx),%ecx
  400e59:	58                   	pop    %rax
  400e5a:	5a                   	pop    %rdx
  400e5b:	39 e9                	cmp    %ebp,%ecx
  400e5d:	0f 8f 4d ff ff ff    	jg     400db0 <_ZN8ListView5PaintEP7Surface+0x20>
  400e63:	8b 4b 14             	mov    0x14(%rbx),%ecx
  400e66:	8b 73 0c             	mov    0xc(%rbx),%esi
  400e69:	4d 89 e1             	mov    %r12,%r9
  400e6c:	41 b8 78 78 6e 00    	mov    $0x6e7878,%r8d
  400e72:	8b 7b 10             	mov    0x10(%rbx),%edi
  400e75:	03 7b 08             	add    0x8(%rbx),%edi
  400e78:	ba 14 00 00 00       	mov    $0x14,%edx
  400e7d:	83 ef 14             	sub    $0x14,%edi
  400e80:	e8 bb 12 00 00       	callq  402140 <_Z8DrawRectiiii10RGBAColourP7Surface>
  400e85:	8b 53 0c             	mov    0xc(%rbx),%edx
  400e88:	8b 43 60             	mov    0x60(%rbx),%eax
  400e8b:	48 83 ec 08          	sub    $0x8,%rsp
  400e8f:	41 54                	push   %r12
  400e91:	8b 4b 28             	mov    0x28(%rbx),%ecx
  400e94:	41 b9 eb eb e6 ff    	mov    $0xffe6ebeb,%r9d
  400e9a:	41 b8 fa fa fa ff    	mov    $0xfffafafa,%r8d
  400ea0:	8d 74 02 01          	lea    0x1(%rdx,%rax,1),%esi
  400ea4:	8b 53 08             	mov    0x8(%rbx),%edx
  400ea7:	8b 43 10             	mov    0x10(%rbx),%eax
  400eaa:	8d 7c 02 ed          	lea    -0x13(%rdx,%rax,1),%edi
  400eae:	ba 12 00 00 00       	mov    $0x12,%edx
  400eb3:	e8 88 15 00 00       	callq  402440 <_Z20DrawGradientVerticaliiii10RGBAColourS_P7Surface>
  400eb8:	48 83 c4 18          	add    $0x18,%rsp
  400ebc:	5b                   	pop    %rbx
  400ebd:	5d                   	pop    %rbp
  400ebe:	41 5c                	pop    %r12
  400ec0:	41 5d                	pop    %r13
  400ec2:	c3                   	retq   
  400ec3:	0f 1f 44 00 00       	nopl   0x0(%rax,%rax,1)
  400ec8:	8b 53 18             	mov    0x18(%rbx),%edx
  400ecb:	89 ee                	mov    %ebp,%esi
  400ecd:	4c 8b 68 10          	mov    0x10(%rax),%r13
  400ed1:	8b 43 60             	mov    0x60(%rbx),%eax
  400ed4:	0f af f2             	imul   %edx,%esi
  400ed7:	39 6b 64             	cmp    %ebp,0x64(%rbx)
  400eda:	0f 85 3e ff ff ff    	jne    400e1e <_ZN8ListView5PaintEP7Surface+0x8e>
  400ee0:	8b 7b 10             	mov    0x10(%rbx),%edi
  400ee3:	83 c6 02             	add    $0x2,%esi
  400ee6:	8d 4a fc             	lea    -0x4(%rdx),%ecx
  400ee9:	4d 89 e1             	mov    %r12,%r9
  400eec:	29 c6                	sub    %eax,%esi
  400eee:	41 b8 a5 20 18 00    	mov    $0x1820a5,%r8d
  400ef4:	8d 57 e8             	lea    -0x18(%rdi),%edx
  400ef7:	bf 02 00 00 00       	mov    $0x2,%edi
  400efc:	e8 3f 12 00 00       	callq  402140 <_Z8DrawRectiiii10RGBAColourP7Surface>
  400f01:	8b 53 18             	mov    0x18(%rbx),%edx
  400f04:	89 ee                	mov    %ebp,%esi
  400f06:	8b 43 60             	mov    0x60(%rbx),%eax
  400f09:	0f af f2             	imul   %edx,%esi
  400f0c:	e9 0d ff ff ff       	jmpq   400e1e <_ZN8ListView5PaintEP7Surface+0x8e>
  400f11:	0f 1f 80 00 00 00 00 	nopl   0x0(%rax)
  400f18:	48 89 c6             	mov    %rax,%rsi
  400f1b:	e9 e6 fe ff ff       	jmpq   400e06 <_ZN8ListView5PaintEP7Surface+0x76>

0000000000400f20 <_ZN10ScrollView5PaintEP7Surface>:
  400f20:	41 57                	push   %r15
  400f22:	49 89 f7             	mov    %rsi,%r15
  400f25:	41 56                	push   %r14
  400f27:	41 55                	push   %r13
  400f29:	41 54                	push   %r12
  400f2b:	55                   	push   %rbp
  400f2c:	48 89 fd             	mov    %rdi,%rbp
  400f2f:	53                   	push   %rbx
  400f30:	48 83 ec 18          	sub    $0x18,%rsp
  400f34:	8b 57 38             	mov    0x38(%rdi),%edx
  400f37:	85 d2                	test   %edx,%edx
  400f39:	0f 8e a8 01 00 00    	jle    4010e7 <_ZN10ScrollView5PaintEP7Surface+0x1c7>
  400f3f:	48 8b 77 28          	mov    0x28(%rdi),%rsi
  400f43:	31 db                	xor    %ebx,%ebx
  400f45:	0f 1f 00             	nopl   (%rax)
  400f48:	48 85 f6             	test   %rsi,%rsi
  400f4b:	41 0f 94 c1          	sete   %r9b
  400f4f:	85 d2                	test   %edx,%edx
  400f51:	0f 94 c0             	sete   %al
  400f54:	44 08 c8             	or     %r9b,%al
  400f57:	0f 85 d3 01 00 00    	jne    401130 <_ZN10ScrollView5PaintEP7Surface+0x210>
  400f5d:	39 d3                	cmp    %edx,%ebx
  400f5f:	0f 83 cb 01 00 00    	jae    401130 <_ZN10ScrollView5PaintEP7Surface+0x210>
  400f65:	85 db                	test   %ebx,%ebx
  400f67:	0f 84 0b 02 00 00    	je     401178 <_ZN10ScrollView5PaintEP7Surface+0x258>
  400f6d:	48 8b 3e             	mov    (%rsi),%rdi
  400f70:	49 89 fa             	mov    %rdi,%r10
  400f73:	48 85 ff             	test   %rdi,%rdi
  400f76:	0f 84 23 02 00 00    	je     40119f <_ZN10ScrollView5PaintEP7Surface+0x27f>
  400f7c:	31 c0                	xor    %eax,%eax
  400f7e:	eb 0f                	jmp    400f8f <_ZN10ScrollView5PaintEP7Surface+0x6f>
  400f80:	39 c3                	cmp    %eax,%ebx
  400f82:	76 12                	jbe    400f96 <_ZN10ScrollView5PaintEP7Surface+0x76>
  400f84:	49 8b 0a             	mov    (%r10),%rcx
  400f87:	48 85 c9             	test   %rcx,%rcx
  400f8a:	74 0a                	je     400f96 <_ZN10ScrollView5PaintEP7Surface+0x76>
  400f8c:	49 89 ca             	mov    %rcx,%r10
  400f8f:	83 c0 01             	add    $0x1,%eax
  400f92:	39 d0                	cmp    %edx,%eax
  400f94:	72 ea                	jb     400f80 <_ZN10ScrollView5PaintEP7Surface+0x60>
  400f96:	49 8b 42 10          	mov    0x10(%r10),%rax
  400f9a:	8b 48 08             	mov    0x8(%rax),%ecx
  400f9d:	44 8b 70 0c          	mov    0xc(%rax),%r14d
  400fa1:	44 8b 60 10          	mov    0x10(%rax),%r12d
  400fa5:	44 8b 68 14          	mov    0x14(%rax),%r13d
  400fa9:	89 4c 24 08          	mov    %ecx,0x8(%rsp)
  400fad:	48 85 ff             	test   %rdi,%rdi
  400fb0:	0f 84 e1 01 00 00    	je     401197 <_ZN10ScrollView5PaintEP7Surface+0x277>
  400fb6:	31 c0                	xor    %eax,%eax
  400fb8:	eb 15                	jmp    400fcf <_ZN10ScrollView5PaintEP7Surface+0xaf>
  400fba:	66 0f 1f 44 00 00    	nopw   0x0(%rax,%rax,1)
  400fc0:	39 d0                	cmp    %edx,%eax
  400fc2:	73 12                	jae    400fd6 <_ZN10ScrollView5PaintEP7Surface+0xb6>
  400fc4:	48 8b 0f             	mov    (%rdi),%rcx
  400fc7:	48 85 c9             	test   %rcx,%rcx
  400fca:	74 0a                	je     400fd6 <_ZN10ScrollView5PaintEP7Surface+0xb6>
  400fcc:	48 89 cf             	mov    %rcx,%rdi
  400fcf:	83 c0 01             	add    $0x1,%eax
  400fd2:	39 c3                	cmp    %eax,%ebx
  400fd4:	77 ea                	ja     400fc0 <_ZN10ScrollView5PaintEP7Surface+0xa0>
  400fd6:	48 8b 47 10          	mov    0x10(%rdi),%rax
  400fda:	8b 7c 24 08          	mov    0x8(%rsp),%edi
  400fde:	44 89 60 10          	mov    %r12d,0x10(%rax)
  400fe2:	44 89 68 14          	mov    %r13d,0x14(%rax)
  400fe6:	8d 14 3f             	lea    (%rdi,%rdi,1),%edx
  400fe9:	89 50 08             	mov    %edx,0x8(%rax)
  400fec:	43 8d 14 36          	lea    (%r14,%r14,1),%edx
  400ff0:	89 50 0c             	mov    %edx,0xc(%rax)
  400ff3:	8b 7d 38             	mov    0x38(%rbp),%edi
  400ff6:	85 ff                	test   %edi,%edi
  400ff8:	0f 94 c0             	sete   %al
  400ffb:	44 08 c8             	or     %r9b,%al
  400ffe:	0f 85 4c 01 00 00    	jne    401150 <_ZN10ScrollView5PaintEP7Surface+0x230>
  401004:	39 df                	cmp    %ebx,%edi
  401006:	0f 86 44 01 00 00    	jbe    401150 <_ZN10ScrollView5PaintEP7Surface+0x230>
  40100c:	85 db                	test   %ebx,%ebx
  40100e:	0f 84 4c 01 00 00    	je     401160 <_ZN10ScrollView5PaintEP7Surface+0x240>
  401014:	48 8b 0e             	mov    (%rsi),%rcx
  401017:	48 85 c9             	test   %rcx,%rcx
  40101a:	0f 84 40 01 00 00    	je     401160 <_ZN10ScrollView5PaintEP7Surface+0x240>
  401020:	31 c0                	xor    %eax,%eax
  401022:	eb 13                	jmp    401037 <_ZN10ScrollView5PaintEP7Surface+0x117>
  401024:	0f 1f 40 00          	nopl   0x0(%rax)
  401028:	39 c7                	cmp    %eax,%edi
  40102a:	76 12                	jbe    40103e <_ZN10ScrollView5PaintEP7Surface+0x11e>
  40102c:	48 8b 11             	mov    (%rcx),%rdx
  40102f:	48 85 d2             	test   %rdx,%rdx
  401032:	74 0a                	je     40103e <_ZN10ScrollView5PaintEP7Surface+0x11e>
  401034:	48 89 d1             	mov    %rdx,%rcx
  401037:	83 c0 01             	add    $0x1,%eax
  40103a:	39 d8                	cmp    %ebx,%eax
  40103c:	72 ea                	jb     401028 <_ZN10ScrollView5PaintEP7Surface+0x108>
  40103e:	48 8b 79 10          	mov    0x10(%rcx),%rdi
  401042:	48 8b 07             	mov    (%rdi),%rax
  401045:	4c 89 fe             	mov    %r15,%rsi
  401048:	ff 10                	callq  *(%rax)
  40104a:	8b 7d 38             	mov    0x38(%rbp),%edi
  40104d:	48 8b 75 28          	mov    0x28(%rbp),%rsi
  401051:	85 ff                	test   %edi,%edi
  401053:	0f 94 c2             	sete   %dl
  401056:	48 85 f6             	test   %rsi,%rsi
  401059:	0f 94 c0             	sete   %al
  40105c:	08 c2                	or     %al,%dl
  40105e:	0f 85 bc 00 00 00    	jne    401120 <_ZN10ScrollView5PaintEP7Surface+0x200>
  401064:	39 df                	cmp    %ebx,%edi
  401066:	0f 86 b4 00 00 00    	jbe    401120 <_ZN10ScrollView5PaintEP7Surface+0x200>
  40106c:	85 db                	test   %ebx,%ebx
  40106e:	0f 84 fc 00 00 00    	je     401170 <_ZN10ScrollView5PaintEP7Surface+0x250>
  401074:	48 8b 0e             	mov    (%rsi),%rcx
  401077:	48 85 c9             	test   %rcx,%rcx
  40107a:	0f 84 f0 00 00 00    	je     401170 <_ZN10ScrollView5PaintEP7Surface+0x250>
  401080:	31 c0                	xor    %eax,%eax
  401082:	eb 13                	jmp    401097 <_ZN10ScrollView5PaintEP7Surface+0x177>
  401084:	0f 1f 40 00          	nopl   0x0(%rax)
  401088:	39 c7                	cmp    %eax,%edi
  40108a:	76 12                	jbe    40109e <_ZN10ScrollView5PaintEP7Surface+0x17e>
  40108c:	48 8b 11             	mov    (%rcx),%rdx
  40108f:	48 85 d2             	test   %rdx,%rdx
  401092:	74 0a                	je     40109e <_ZN10ScrollView5PaintEP7Surface+0x17e>
  401094:	48 89 d1             	mov    %rdx,%rcx
  401097:	83 c0 01             	add    $0x1,%eax
  40109a:	39 d8                	cmp    %ebx,%eax
  40109c:	72 ea                	jb     401088 <_ZN10ScrollView5PaintEP7Surface+0x168>
  40109e:	48 8b 41 10          	mov    0x10(%rcx),%rax
  4010a2:	44 89 64 24 0c       	mov    %r12d,0xc(%rsp)
  4010a7:	66 0f 6e 44 24 08    	movd   0x8(%rsp),%xmm0
  4010ad:	83 c3 01             	add    $0x1,%ebx
  4010b0:	66 0f 6e 4c 24 0c    	movd   0xc(%rsp),%xmm1
  4010b6:	44 89 74 24 08       	mov    %r14d,0x8(%rsp)
  4010bb:	44 89 6c 24 0c       	mov    %r13d,0xc(%rsp)
  4010c0:	66 0f 6e 5c 24 08    	movd   0x8(%rsp),%xmm3
  4010c6:	66 0f 6e 54 24 0c    	movd   0xc(%rsp),%xmm2
  4010cc:	66 0f 62 c3          	punpckldq %xmm3,%xmm0
  4010d0:	66 0f 62 ca          	punpckldq %xmm2,%xmm1
  4010d4:	66 0f 6c c1          	punpcklqdq %xmm1,%xmm0
  4010d8:	0f 11 40 08          	movups %xmm0,0x8(%rax)
  4010dc:	8b 55 38             	mov    0x38(%rbp),%edx
  4010df:	39 da                	cmp    %ebx,%edx
  4010e1:	0f 8f 61 fe ff ff    	jg     400f48 <_ZN10ScrollView5PaintEP7Surface+0x28>
  4010e7:	8b 7d 10             	mov    0x10(%rbp),%edi
  4010ea:	8b 4d 14             	mov    0x14(%rbp),%ecx
  4010ed:	4d 89 f9             	mov    %r15,%r9
  4010f0:	41 b8 78 78 6e ff    	mov    $0xff6e7878,%r8d
  4010f6:	03 7d 08             	add    0x8(%rbp),%edi
  4010f9:	8b 75 0c             	mov    0xc(%rbp),%esi
  4010fc:	48 83 c4 18          	add    $0x18,%rsp
  401100:	ba 18 00 00 00       	mov    $0x18,%edx
  401105:	5b                   	pop    %rbx
  401106:	83 ef 18             	sub    $0x18,%edi
  401109:	5d                   	pop    %rbp
  40110a:	41 5c                	pop    %r12
  40110c:	41 5d                	pop    %r13
  40110e:	41 5e                	pop    %r14
  401110:	41 5f                	pop    %r15
  401112:	e9 29 10 00 00       	jmpq   402140 <_Z8DrawRectiiii10RGBAColourP7Surface>
  401117:	66 0f 1f 84 00 00 00 	nopw   0x0(%rax,%rax,1)
  40111e:	00 00 
  401120:	48 8b 46 10          	mov    0x10(%rsi),%rax
  401124:	e9 79 ff ff ff       	jmpq   4010a2 <_ZN10ScrollView5PaintEP7Surface+0x182>
  401129:	0f 1f 80 00 00 00 00 	nopl   0x0(%rax)
  401130:	48 8b 46 10          	mov    0x10(%rsi),%rax
  401134:	8b 78 08             	mov    0x8(%rax),%edi
  401137:	44 8b 70 0c          	mov    0xc(%rax),%r14d
  40113b:	44 8b 60 10          	mov    0x10(%rax),%r12d
  40113f:	44 8b 68 14          	mov    0x14(%rax),%r13d
  401143:	89 7c 24 08          	mov    %edi,0x8(%rsp)
  401147:	e9 8e fe ff ff       	jmpq   400fda <_ZN10ScrollView5PaintEP7Surface+0xba>
  40114c:	0f 1f 40 00          	nopl   0x0(%rax)
  401150:	48 8b 7e 10          	mov    0x10(%rsi),%rdi
  401154:	e9 e9 fe ff ff       	jmpq   401042 <_ZN10ScrollView5PaintEP7Surface+0x122>
  401159:	0f 1f 80 00 00 00 00 	nopl   0x0(%rax)
  401160:	48 89 f1             	mov    %rsi,%rcx
  401163:	e9 d6 fe ff ff       	jmpq   40103e <_ZN10ScrollView5PaintEP7Surface+0x11e>
  401168:	0f 1f 84 00 00 00 00 	nopl   0x0(%rax,%rax,1)
  40116f:	00 
  401170:	48 89 f1             	mov    %rsi,%rcx
  401173:	e9 26 ff ff ff       	jmpq   40109e <_ZN10ScrollView5PaintEP7Surface+0x17e>
  401178:	48 8b 46 10          	mov    0x10(%rsi),%rax
  40117c:	8b 78 08             	mov    0x8(%rax),%edi
  40117f:	44 8b 70 0c          	mov    0xc(%rax),%r14d
  401183:	44 8b 60 10          	mov    0x10(%rax),%r12d
  401187:	44 8b 68 14          	mov    0x14(%rax),%r13d
  40118b:	89 7c 24 08          	mov    %edi,0x8(%rsp)
  40118f:	48 89 f7             	mov    %rsi,%rdi
  401192:	e9 3f fe ff ff       	jmpq   400fd6 <_ZN10ScrollView5PaintEP7Surface+0xb6>
  401197:	48 89 f7             	mov    %rsi,%rdi
  40119a:	e9 37 fe ff ff       	jmpq   400fd6 <_ZN10ScrollView5PaintEP7Surface+0xb6>
  40119f:	49 89 f2             	mov    %rsi,%r10
  4011a2:	e9 ef fd ff ff       	jmpq   400f96 <_ZN10ScrollView5PaintEP7Surface+0x76>
  4011a7:	90                   	nop
  4011a8:	0f 1f 84 00 00 00 00 	nopl   0x0(%rax,%rax,1)
  4011af:	00 

00000000004011b0 <_ZN8ListView11OnMouseDownE8Vector2i>:
  4011b0:	8b 47 10             	mov    0x10(%rdi),%eax
  4011b3:	03 47 08             	add    0x8(%rdi),%eax
  4011b6:	83 e8 13             	sub    $0x13,%eax
  4011b9:	39 f0                	cmp    %esi,%eax
  4011bb:	7f 13                	jg     4011d0 <_ZN8ListView11OnMouseDownE8Vector2i+0x20>
  4011bd:	c6 47 2c 01          	movb   $0x1,0x2c(%rdi)
  4011c1:	48 89 77 30          	mov    %rsi,0x30(%rdi)
  4011c5:	c3                   	retq   
  4011c6:	66 2e 0f 1f 84 00 00 	nopw   %cs:0x0(%rax,%rax,1)
  4011cd:	00 00 00 
  4011d0:	48 c1 fe 20          	sar    $0x20,%rsi
  4011d4:	66 0f ef c0          	pxor   %xmm0,%xmm0
  4011d8:	66 0f ef c9          	pxor   %xmm1,%xmm1
  4011dc:	53                   	push   %rbx
  4011dd:	f2 0f 2a 4f 60       	cvtsi2sdl 0x60(%rdi),%xmm1
  4011e2:	48 89 fb             	mov    %rdi,%rbx
  4011e5:	f2 0f 2a c6          	cvtsi2sd %esi,%xmm0
  4011e9:	f2 0f 58 c1          	addsd  %xmm1,%xmm0
  4011ed:	66 0f ef c9          	pxor   %xmm1,%xmm1
  4011f1:	f2 0f 2a 4f 18       	cvtsi2sdl 0x18(%rdi),%xmm1
  4011f6:	f2 0f 5e c1          	divsd  %xmm1,%xmm0
  4011fa:	e8 0a fd 01 00       	callq  420f09 <floor>
  4011ff:	8b 53 78             	mov    0x78(%rbx),%edx
  401202:	f2 0f 2c c0          	cvttsd2si %xmm0,%eax
  401206:	39 d0                	cmp    %edx,%eax
  401208:	0f 4d c2             	cmovge %edx,%eax
  40120b:	89 43 64             	mov    %eax,0x64(%rbx)
  40120e:	5b                   	pop    %rbx
  40120f:	c3                   	retq   

0000000000401210 <_ZN8ListView9OnMouseUpE8Vector2i>:
  401210:	80 7f 2c 00          	cmpb   $0x0,0x2c(%rdi)
  401214:	74 1b                	je     401231 <_ZN8ListView9OnMouseUpE8Vector2i+0x21>
  401216:	8b 57 60             	mov    0x60(%rdi),%edx
  401219:	8b 47 1c             	mov    0x1c(%rdi),%eax
  40121c:	c6 47 2c 00          	movb   $0x0,0x2c(%rdi)
  401220:	85 d2                	test   %edx,%edx
  401222:	74 14                	je     401238 <_ZN8ListView9OnMouseUpE8Vector2i+0x28>
  401224:	85 c0                	test   %eax,%eax
  401226:	ba 00 00 00 00       	mov    $0x0,%edx
  40122b:	0f 49 c2             	cmovns %edx,%eax
  40122e:	89 47 60             	mov    %eax,0x60(%rdi)
  401231:	c3                   	retq   
  401232:	66 0f 1f 44 00 00    	nopw   0x0(%rax,%rax,1)
  401238:	85 c0                	test   %eax,%eax
  40123a:	79 f2                	jns    40122e <_ZN8ListView9OnMouseUpE8Vector2i+0x1e>
  40123c:	c3                   	retq   
  40123d:	90                   	nop
  40123e:	66 90                	xchg   %ax,%ax

0000000000401240 <_ZN7TextBoxC1E4Rect>:
  401240:	48 c7 c0 58 40 43 00 	mov    $0x434058,%rax
  401247:	48 89 77 08          	mov    %rsi,0x8(%rdi)
  40124b:	c7 87 28 01 00 00 00 	movl   $0xe1000000,0x128(%rdi)
  401252:	00 00 e1 
  401255:	48 83 c0 10          	add    $0x10,%rax
  401259:	48 89 57 10          	mov    %rdx,0x10(%rdi)
  40125d:	48 89 07             	mov    %rax,(%rdi)
  401260:	c3                   	retq   
  401261:	90                   	nop
  401262:	66 66 2e 0f 1f 84 00 	data16 nopw %cs:0x0(%rax,%rax,1)
  401269:	00 00 00 00 
  40126d:	0f 1f 00             	nopl   (%rax)

0000000000401270 <_ZN7TextBox8LoadTextEPc>:
  401270:	55                   	push   %rbp
  401271:	48 89 f5             	mov    %rsi,%rbp
  401274:	53                   	push   %rbx
  401275:	48 89 fb             	mov    %rdi,%rbx
  401278:	48 89 f7             	mov    %rsi,%rdi
  40127b:	48 83 c3 1b          	add    $0x1b,%rbx
  40127f:	48 83 ec 08          	sub    $0x8,%rsp
  401283:	e8 fc 99 00 00       	callq  40ac84 <strlen>
  401288:	48 3d 00 01 00 00    	cmp    $0x100,%rax
  40128e:	77 20                	ja     4012b0 <_ZN7TextBox8LoadTextEPc+0x40>
  401290:	48 89 df             	mov    %rbx,%rdi
  401293:	31 f6                	xor    %esi,%esi
  401295:	ba 00 01 00 00       	mov    $0x100,%edx
  40129a:	e8 9c 98 00 00       	callq  40ab3b <memset>
  40129f:	48 83 c4 08          	add    $0x8,%rsp
  4012a3:	48 89 ee             	mov    %rbp,%rsi
  4012a6:	48 89 df             	mov    %rbx,%rdi
  4012a9:	5b                   	pop    %rbx
  4012aa:	5d                   	pop    %rbp
  4012ab:	e9 a7 ed 01 00       	jmpq   420057 <strcpy>
  4012b0:	48 89 ef             	mov    %rbp,%rdi
  4012b3:	e8 cc 99 00 00       	callq  40ac84 <strlen>
  4012b8:	48 89 df             	mov    %rbx,%rdi
  4012bb:	48 89 c6             	mov    %rax,%rsi
  4012be:	e8 0b af 00 00       	callq  40c1ce <realloc>
  4012c3:	eb cb                	jmp    401290 <_ZN7TextBox8LoadTextEPc+0x20>
  4012c5:	90                   	nop
  4012c6:	66 2e 0f 1f 84 00 00 	nopw   %cs:0x0(%rax,%rax,1)
  4012cd:	00 00 00 

00000000004012d0 <_ZN6ButtonC1EPc4Rect>:
  4012d0:	55                   	push   %rbp
  4012d1:	48 89 f5             	mov    %rsi,%rbp
  4012d4:	53                   	push   %rbx
  4012d5:	48 89 fb             	mov    %rdi,%rbx
  4012d8:	48 83 ec 18          	sub    $0x18,%rsp
  4012dc:	48 c7 c0 80 40 43 00 	mov    $0x434080,%rax
  4012e3:	48 89 14 24          	mov    %rdx,(%rsp)
  4012e7:	48 83 c0 10          	add    $0x10,%rax
  4012eb:	48 89 4c 24 08       	mov    %rcx,0x8(%rsp)
  4012f0:	48 89 07             	mov    %rax,(%rdi)
  4012f3:	48 89 f7             	mov    %rsi,%rdi
  4012f6:	e8 89 99 00 00       	callq  40ac84 <strlen>
  4012fb:	48 8d 7b 1a          	lea    0x1a(%rbx),%rdi
  4012ff:	48 89 ee             	mov    %rbp,%rsi
  401302:	89 43 5c             	mov    %eax,0x5c(%rbx)
  401305:	e8 4d ed 01 00       	callq  420057 <strcpy>
  40130a:	48 8b 14 24          	mov    (%rsp),%rdx
  40130e:	48 8b 4c 24 08       	mov    0x8(%rsp),%rcx
  401313:	48 89 53 08          	mov    %rdx,0x8(%rbx)
  401317:	48 89 4b 10          	mov    %rcx,0x10(%rbx)
  40131b:	48 83 c4 18          	add    $0x18,%rsp
  40131f:	5b                   	pop    %rbx
  401320:	5d                   	pop    %rbp
  401321:	c3                   	retq   
  401322:	66 66 2e 0f 1f 84 00 	data16 nopw %cs:0x0(%rax,%rax,1)
  401329:	00 00 00 00 
  40132d:	0f 1f 00             	nopl   (%rax)

0000000000401330 <_ZN6Button17DrawButtonBordersEP7Surfaceb>:
  401330:	55                   	push   %rbp
  401331:	48 89 f5             	mov    %rsi,%rbp
  401334:	53                   	push   %rbx
  401335:	48 89 fb             	mov    %rdi,%rbx
  401338:	48 83 ec 08          	sub    $0x8,%rsp
  40133c:	8b 47 10             	mov    0x10(%rdi),%eax
  40133f:	8b 4f 08             	mov    0x8(%rdi),%ecx
  401342:	8b 77 0c             	mov    0xc(%rdi),%esi
  401345:	83 e8 02             	sub    $0x2,%eax
  401348:	8d 79 01             	lea    0x1(%rcx),%edi
  40134b:	84 d2                	test   %dl,%dl
  40134d:	0f 84 bd 00 00 00    	je     401410 <_ZN6Button17DrawButtonBordersEP7Surfaceb+0xe0>
  401353:	55                   	push   %rbp
  401354:	89 c2                	mov    %eax,%edx
  401356:	41 b9 fa 00 00 00    	mov    $0xfa,%r9d
  40135c:	41 b8 fa 00 00 00    	mov    $0xfa,%r8d
  401362:	68 fa 00 00 00       	pushq  $0xfa
  401367:	b9 01 00 00 00       	mov    $0x1,%ecx
  40136c:	e8 2f 0d 00 00       	callq  4020a0 <_Z8DrawRectiiiihhhP7Surface>
  401371:	8b 43 10             	mov    0x10(%rbx),%eax
  401374:	55                   	push   %rbp
  401375:	41 b9 fa 00 00 00    	mov    $0xfa,%r9d
  40137b:	68 fa 00 00 00       	pushq  $0xfa
  401380:	8b 73 14             	mov    0x14(%rbx),%esi
  401383:	41 b8 fa 00 00 00    	mov    $0xfa,%r8d
  401389:	b9 01 00 00 00       	mov    $0x1,%ecx
  40138e:	8d 50 fe             	lea    -0x2(%rax),%edx
  401391:	8b 43 08             	mov    0x8(%rbx),%eax
  401394:	03 73 0c             	add    0xc(%rbx),%esi
  401397:	83 ee 01             	sub    $0x1,%esi
  40139a:	8d 78 01             	lea    0x1(%rax),%edi
  40139d:	e8 fe 0c 00 00       	callq  4020a0 <_Z8DrawRectiiiihhhP7Surface>
  4013a2:	8b 43 14             	mov    0x14(%rbx),%eax
  4013a5:	48 83 c4 20          	add    $0x20,%rsp
  4013a9:	8b 7b 08             	mov    0x8(%rbx),%edi
  4013ac:	55                   	push   %rbp
  4013ad:	41 b9 fa 00 00 00    	mov    $0xfa,%r9d
  4013b3:	41 b8 fa 00 00 00    	mov    $0xfa,%r8d
  4013b9:	ba 01 00 00 00       	mov    $0x1,%edx
  4013be:	68 fa 00 00 00       	pushq  $0xfa
  4013c3:	8d 48 fe             	lea    -0x2(%rax),%ecx
  4013c6:	8b 43 0c             	mov    0xc(%rbx),%eax
  4013c9:	8d 70 01             	lea    0x1(%rax),%esi
  4013cc:	e8 cf 0c 00 00       	callq  4020a0 <_Z8DrawRectiiiihhhP7Surface>
  4013d1:	8b 43 14             	mov    0x14(%rbx),%eax
  4013d4:	55                   	push   %rbp
  4013d5:	41 b9 fa 00 00 00    	mov    $0xfa,%r9d
  4013db:	68 fa 00 00 00       	pushq  $0xfa
  4013e0:	8b 7b 10             	mov    0x10(%rbx),%edi
  4013e3:	41 b8 fa 00 00 00    	mov    $0xfa,%r8d
  4013e9:	ba 01 00 00 00       	mov    $0x1,%edx
  4013ee:	8d 48 fe             	lea    -0x2(%rax),%ecx
  4013f1:	8b 43 0c             	mov    0xc(%rbx),%eax
  4013f4:	03 7b 08             	add    0x8(%rbx),%edi
  4013f7:	83 ef 01             	sub    $0x1,%edi
  4013fa:	8d 70 01             	lea    0x1(%rax),%esi
  4013fd:	e8 9e 0c 00 00       	callq  4020a0 <_Z8DrawRectiiiihhhP7Surface>
  401402:	48 83 c4 20          	add    $0x20,%rsp
  401406:	48 83 c4 08          	add    $0x8,%rsp
  40140a:	5b                   	pop    %rbx
  40140b:	5d                   	pop    %rbp
  40140c:	c3                   	retq   
  40140d:	0f 1f 00             	nopl   (%rax)
  401410:	55                   	push   %rbp
  401411:	89 c2                	mov    %eax,%edx
  401413:	41 b9 60 00 00 00    	mov    $0x60,%r9d
  401419:	41 b8 60 00 00 00    	mov    $0x60,%r8d
  40141f:	6a 60                	pushq  $0x60
  401421:	b9 01 00 00 00       	mov    $0x1,%ecx
  401426:	e8 75 0c 00 00       	callq  4020a0 <_Z8DrawRectiiiihhhP7Surface>
  40142b:	8b 43 10             	mov    0x10(%rbx),%eax
  40142e:	55                   	push   %rbp
  40142f:	41 b9 60 00 00 00    	mov    $0x60,%r9d
  401435:	6a 60                	pushq  $0x60
  401437:	8b 73 14             	mov    0x14(%rbx),%esi
  40143a:	41 b8 60 00 00 00    	mov    $0x60,%r8d
  401440:	b9 01 00 00 00       	mov    $0x1,%ecx
  401445:	8d 50 fe             	lea    -0x2(%rax),%edx
  401448:	8b 43 08             	mov    0x8(%rbx),%eax
  40144b:	03 73 0c             	add    0xc(%rbx),%esi
  40144e:	83 ee 01             	sub    $0x1,%esi
  401451:	8d 78 01             	lea    0x1(%rax),%edi
  401454:	e8 47 0c 00 00       	callq  4020a0 <_Z8DrawRectiiiihhhP7Surface>
  401459:	8b 43 14             	mov    0x14(%rbx),%eax
  40145c:	48 83 c4 20          	add    $0x20,%rsp
  401460:	8b 7b 08             	mov    0x8(%rbx),%edi
  401463:	55                   	push   %rbp
  401464:	41 b9 60 00 00 00    	mov    $0x60,%r9d
  40146a:	41 b8 60 00 00 00    	mov    $0x60,%r8d
  401470:	ba 01 00 00 00       	mov    $0x1,%edx
  401475:	6a 60                	pushq  $0x60
  401477:	8d 48 fe             	lea    -0x2(%rax),%ecx
  40147a:	8b 43 0c             	mov    0xc(%rbx),%eax
  40147d:	8d 70 01             	lea    0x1(%rax),%esi
  401480:	e8 1b 0c 00 00       	callq  4020a0 <_Z8DrawRectiiiihhhP7Surface>
  401485:	8b 43 14             	mov    0x14(%rbx),%eax
  401488:	55                   	push   %rbp
  401489:	41 b9 60 00 00 00    	mov    $0x60,%r9d
  40148f:	6a 60                	pushq  $0x60
  401491:	8b 7b 10             	mov    0x10(%rbx),%edi
  401494:	41 b8 60 00 00 00    	mov    $0x60,%r8d
  40149a:	ba 01 00 00 00       	mov    $0x1,%edx
  40149f:	8d 48 fe             	lea    -0x2(%rax),%ecx
  4014a2:	8b 43 0c             	mov    0xc(%rbx),%eax
  4014a5:	03 7b 08             	add    0x8(%rbx),%edi
  4014a8:	83 ef 01             	sub    $0x1,%edi
  4014ab:	8d 70 01             	lea    0x1(%rax),%esi
  4014ae:	e8 ed 0b 00 00       	callq  4020a0 <_Z8DrawRectiiiihhhP7Surface>
  4014b3:	48 83 c4 20          	add    $0x20,%rsp
  4014b7:	48 83 c4 08          	add    $0x8,%rsp
  4014bb:	5b                   	pop    %rbx
  4014bc:	5d                   	pop    %rbp
  4014bd:	c3                   	retq   
  4014be:	66 90                	xchg   %ax,%ax

00000000004014c0 <_ZN6Button5PaintEP7Surface>:
  4014c0:	41 54                	push   %r12
  4014c2:	55                   	push   %rbp
  4014c3:	48 89 f5             	mov    %rsi,%rbp
  4014c6:	53                   	push   %rbx
  4014c7:	8b 47 10             	mov    0x10(%rdi),%eax
  4014ca:	48 89 fb             	mov    %rdi,%rbx
  4014cd:	80 7b 19 00          	cmpb   $0x0,0x19(%rbx)
  4014d1:	8b 4f 14             	mov    0x14(%rdi),%ecx
  4014d4:	8d 50 fe             	lea    -0x2(%rax),%edx
  4014d7:	8b 47 0c             	mov    0xc(%rdi),%eax
  4014da:	8d 70 01             	lea    0x1(%rax),%esi
  4014dd:	8b 47 08             	mov    0x8(%rdi),%eax
  4014e0:	8d 78 01             	lea    0x1(%rax),%edi
  4014e3:	0f 85 8f 00 00 00    	jne    401578 <_ZN6Button5PaintEP7Surface+0xb8>
  4014e9:	8b 43 60             	mov    0x60(%rbx),%eax
  4014ec:	83 e9 02             	sub    $0x2,%ecx
  4014ef:	4c 8d 63 1a          	lea    0x1a(%rbx),%r12
  4014f3:	83 f8 02             	cmp    $0x2,%eax
  4014f6:	0f 84 24 02 00 00    	je     401720 <_ZN6Button5PaintEP7Surface+0x260>
  4014fc:	83 f8 03             	cmp    $0x3,%eax
  4014ff:	0f 84 03 02 00 00    	je     401708 <_ZN6Button5PaintEP7Surface+0x248>
  401505:	83 f8 01             	cmp    $0x1,%eax
  401508:	0f 84 82 01 00 00    	je     401690 <_ZN6Button5PaintEP7Surface+0x1d0>
  40150e:	48 83 ec 08          	sub    $0x8,%rsp
  401512:	41 b9 eb eb e6 ff    	mov    $0xffe6ebeb,%r9d
  401518:	41 b8 fa fa fa ff    	mov    $0xfffafafa,%r8d
  40151e:	55                   	push   %rbp
  40151f:	e8 1c 0f 00 00       	callq  402440 <_Z20DrawGradientVerticaliiii10RGBAColourS_P7Surface>
  401524:	48 89 ee             	mov    %rbp,%rsi
  401527:	48 89 df             	mov    %rbx,%rdi
  40152a:	31 d2                	xor    %edx,%edx
  40152c:	e8 ff fd ff ff       	callq  401330 <_ZN6Button17DrawButtonBordersEP7Surfaceb>
  401531:	8b 43 14             	mov    0x14(%rbx),%eax
  401534:	4c 89 e7             	mov    %r12,%rdi
  401537:	45 31 c9             	xor    %r9d,%r9d
  40153a:	45 31 c0             	xor    %r8d,%r8d
  40153d:	31 c9                	xor    %ecx,%ecx
  40153f:	48 89 2c 24          	mov    %rbp,(%rsp)
  401543:	89 c2                	mov    %eax,%edx
  401545:	c1 ea 1f             	shr    $0x1f,%edx
  401548:	01 c2                	add    %eax,%edx
  40154a:	8b 43 10             	mov    0x10(%rbx),%eax
  40154d:	d1 fa                	sar    %edx
  40154f:	03 53 0c             	add    0xc(%rbx),%edx
  401552:	89 c6                	mov    %eax,%esi
  401554:	83 ea 08             	sub    $0x8,%edx
  401557:	c1 ee 1f             	shr    $0x1f,%esi
  40155a:	01 c6                	add    %eax,%esi
  40155c:	8b 43 5c             	mov    0x5c(%rbx),%eax
  40155f:	d1 fe                	sar    %esi
  401561:	03 73 08             	add    0x8(%rbx),%esi
  401564:	c1 e0 02             	shl    $0x2,%eax
  401567:	29 c6                	sub    %eax,%esi
  401569:	e8 32 15 00 00       	callq  402aa0 <_Z10DrawStringPcjjhhhP7Surface>
  40156e:	58                   	pop    %rax
  40156f:	5a                   	pop    %rdx
  401570:	5b                   	pop    %rbx
  401571:	5d                   	pop    %rbp
  401572:	41 5c                	pop    %r12
  401574:	c3                   	retq   
  401575:	0f 1f 00             	nopl   (%rax)
  401578:	89 c8                	mov    %ecx,%eax
  40157a:	55                   	push   %rbp
  40157b:	41 b9 cb 00 00 00    	mov    $0xcb,%r9d
  401581:	41 b8 cb 00 00 00    	mov    $0xcb,%r8d
  401587:	c1 e8 1f             	shr    $0x1f,%eax
  40158a:	68 c7 00 00 00       	pushq  $0xc7
  40158f:	01 c1                	add    %eax,%ecx
  401591:	d1 f9                	sar    %ecx
  401593:	83 e9 01             	sub    $0x1,%ecx
  401596:	e8 05 0b 00 00       	callq  4020a0 <_Z8DrawRectiiiihhhP7Surface>
  40159b:	8b 43 14             	mov    0x14(%rbx),%eax
  40159e:	55                   	push   %rbp
  40159f:	41 b9 cb 00 00 00    	mov    $0xcb,%r9d
  4015a5:	68 c7 00 00 00       	pushq  $0xc7
  4015aa:	41 b8 cb 00 00 00    	mov    $0xcb,%r8d
  4015b0:	89 c6                	mov    %eax,%esi
  4015b2:	c1 ee 1f             	shr    $0x1f,%esi
  4015b5:	01 c6                	add    %eax,%esi
  4015b7:	8b 43 10             	mov    0x10(%rbx),%eax
  4015ba:	d1 fe                	sar    %esi
  4015bc:	8d 50 fe             	lea    -0x2(%rax),%edx
  4015bf:	8b 43 08             	mov    0x8(%rbx),%eax
  4015c2:	8d 4e ff             	lea    -0x1(%rsi),%ecx
  4015c5:	03 73 0c             	add    0xc(%rbx),%esi
  4015c8:	8d 78 01             	lea    0x1(%rax),%edi
  4015cb:	e8 d0 0a 00 00       	callq  4020a0 <_Z8DrawRectiiiihhhP7Surface>
  4015d0:	8b 43 10             	mov    0x10(%rbx),%eax
  4015d3:	48 83 c4 20          	add    $0x20,%rsp
  4015d7:	8b 73 0c             	mov    0xc(%rbx),%esi
  4015da:	55                   	push   %rbp
  4015db:	41 b9 60 00 00 00    	mov    $0x60,%r9d
  4015e1:	41 b8 60 00 00 00    	mov    $0x60,%r8d
  4015e7:	b9 01 00 00 00       	mov    $0x1,%ecx
  4015ec:	6a 60                	pushq  $0x60
  4015ee:	8d 50 fe             	lea    -0x2(%rax),%edx
  4015f1:	8b 43 08             	mov    0x8(%rbx),%eax
  4015f4:	8d 78 01             	lea    0x1(%rax),%edi
  4015f7:	e8 a4 0a 00 00       	callq  4020a0 <_Z8DrawRectiiiihhhP7Surface>
  4015fc:	8b 43 10             	mov    0x10(%rbx),%eax
  4015ff:	55                   	push   %rbp
  401600:	41 b9 60 00 00 00    	mov    $0x60,%r9d
  401606:	6a 60                	pushq  $0x60
  401608:	8b 73 14             	mov    0x14(%rbx),%esi
  40160b:	41 b8 60 00 00 00    	mov    $0x60,%r8d
  401611:	b9 01 00 00 00       	mov    $0x1,%ecx
  401616:	8d 50 fe             	lea    -0x2(%rax),%edx
  401619:	8b 43 08             	mov    0x8(%rbx),%eax
  40161c:	03 73 0c             	add    0xc(%rbx),%esi
  40161f:	83 ee 01             	sub    $0x1,%esi
  401622:	8d 78 01             	lea    0x1(%rax),%edi
  401625:	e8 76 0a 00 00       	callq  4020a0 <_Z8DrawRectiiiihhhP7Surface>
  40162a:	8b 43 14             	mov    0x14(%rbx),%eax
  40162d:	48 83 c4 20          	add    $0x20,%rsp
  401631:	8b 7b 08             	mov    0x8(%rbx),%edi
  401634:	55                   	push   %rbp
  401635:	41 b9 60 00 00 00    	mov    $0x60,%r9d
  40163b:	41 b8 60 00 00 00    	mov    $0x60,%r8d
  401641:	ba 01 00 00 00       	mov    $0x1,%edx
  401646:	6a 60                	pushq  $0x60
  401648:	8d 48 fe             	lea    -0x2(%rax),%ecx
  40164b:	8b 43 0c             	mov    0xc(%rbx),%eax
  40164e:	8d 70 01             	lea    0x1(%rax),%esi
  401651:	e8 4a 0a 00 00       	callq  4020a0 <_Z8DrawRectiiiihhhP7Surface>
  401656:	8b 43 14             	mov    0x14(%rbx),%eax
  401659:	55                   	push   %rbp
  40165a:	41 b9 60 00 00 00    	mov    $0x60,%r9d
  401660:	6a 60                	pushq  $0x60
  401662:	8b 7b 10             	mov    0x10(%rbx),%edi
  401665:	41 b8 60 00 00 00    	mov    $0x60,%r8d
  40166b:	ba 01 00 00 00       	mov    $0x1,%edx
  401670:	8d 48 fe             	lea    -0x2(%rax),%ecx
  401673:	8b 43 0c             	mov    0xc(%rbx),%eax
  401676:	03 7b 08             	add    0x8(%rbx),%edi
  401679:	83 ef 01             	sub    $0x1,%edi
  40167c:	8d 70 01             	lea    0x1(%rax),%esi
  40167f:	e8 1c 0a 00 00       	callq  4020a0 <_Z8DrawRectiiiihhhP7Surface>
  401684:	48 83 c4 20          	add    $0x20,%rsp
  401688:	5b                   	pop    %rbx
  401689:	5d                   	pop    %rbp
  40168a:	41 5c                	pop    %r12
  40168c:	c3                   	retq   
  40168d:	0f 1f 00             	nopl   (%rax)
  401690:	48 83 ec 08          	sub    $0x8,%rsp
  401694:	41 b9 2d 2d 82 ff    	mov    $0xff822d2d,%r9d
  40169a:	41 b8 32 32 96 ff    	mov    $0xff963232,%r8d
  4016a0:	55                   	push   %rbp
  4016a1:	e8 9a 0d 00 00       	callq  402440 <_Z20DrawGradientVerticaliiii10RGBAColourS_P7Surface>
  4016a6:	48 89 ee             	mov    %rbp,%rsi
  4016a9:	48 89 df             	mov    %rbx,%rdi
  4016ac:	ba 01 00 00 00       	mov    $0x1,%edx
  4016b1:	e8 7a fc ff ff       	callq  401330 <_ZN6Button17DrawButtonBordersEP7Surfaceb>
  4016b6:	8b 43 14             	mov    0x14(%rbx),%eax
  4016b9:	b9 fa 00 00 00       	mov    $0xfa,%ecx
  4016be:	4c 89 e7             	mov    %r12,%rdi
  4016c1:	41 b9 fa 00 00 00    	mov    $0xfa,%r9d
  4016c7:	41 b8 fa 00 00 00    	mov    $0xfa,%r8d
  4016cd:	48 89 2c 24          	mov    %rbp,(%rsp)
  4016d1:	89 c2                	mov    %eax,%edx
  4016d3:	c1 ea 1f             	shr    $0x1f,%edx
  4016d6:	01 c2                	add    %eax,%edx
  4016d8:	8b 43 10             	mov    0x10(%rbx),%eax
  4016db:	d1 fa                	sar    %edx
  4016dd:	03 53 0c             	add    0xc(%rbx),%edx
  4016e0:	89 c6                	mov    %eax,%esi
  4016e2:	83 ea 08             	sub    $0x8,%edx
  4016e5:	c1 ee 1f             	shr    $0x1f,%esi
  4016e8:	01 c6                	add    %eax,%esi
  4016ea:	8b 43 5c             	mov    0x5c(%rbx),%eax
  4016ed:	d1 fe                	sar    %esi
  4016ef:	03 73 08             	add    0x8(%rbx),%esi
  4016f2:	c1 e0 02             	shl    $0x2,%eax
  4016f5:	29 c6                	sub    %eax,%esi
  4016f7:	e8 a4 13 00 00       	callq  402aa0 <_Z10DrawStringPcjjhhhP7Surface>
  4016fc:	59                   	pop    %rcx
  4016fd:	5e                   	pop    %rsi
  4016fe:	5b                   	pop    %rbx
  4016ff:	5d                   	pop    %rbp
  401700:	41 5c                	pop    %r12
  401702:	c3                   	retq   
  401703:	0f 1f 44 00 00       	nopl   0x0(%rax,%rax,1)
  401708:	48 83 ec 08          	sub    $0x8,%rsp
  40170c:	41 b9 b4 8c 2d ff    	mov    $0xff2d8cb4,%r9d
  401712:	41 b8 c8 a0 32 ff    	mov    $0xff32a0c8,%r8d
  401718:	55                   	push   %rbp
  401719:	eb 86                	jmp    4016a1 <_ZN6Button5PaintEP7Surface+0x1e1>
  40171b:	0f 1f 44 00 00       	nopl   0x0(%rax,%rax,1)
  401720:	48 83 ec 08          	sub    $0x8,%rsp
  401724:	41 b9 a0 37 37 ff    	mov    $0xff3737a0,%r9d
  40172a:	41 b8 b4 3c 3c ff    	mov    $0xff3c3cb4,%r8d
  401730:	55                   	push   %rbp
  401731:	e9 6b ff ff ff       	jmpq   4016a1 <_ZN6Button5PaintEP7Surface+0x1e1>
  401736:	66 2e 0f 1f 84 00 00 	nopw   %cs:0x0(%rax,%rax,1)
  40173d:	00 00 00 

0000000000401740 <_ZN6BitmapC1E4Rect>:
  401740:	48 c7 c0 a8 40 43 00 	mov    $0x4340a8,%rax
  401747:	53                   	push   %rbx
  401748:	48 89 fb             	mov    %rdi,%rbx
  40174b:	48 89 77 08          	mov    %rsi,0x8(%rdi)
  40174f:	48 83 c0 10          	add    $0x10,%rax
  401753:	48 89 07             	mov    %rax,(%rdi)
  401756:	48 89 d0             	mov    %rdx,%rax
  401759:	48 c1 e8 20          	shr    $0x20,%rax
  40175d:	48 89 53 10          	mov    %rdx,0x10(%rbx)
  401761:	48 89 c7             	mov    %rax,%rdi
  401764:	0f af fa             	imul   %edx,%edi
  401767:	c1 e7 02             	shl    $0x2,%edi
  40176a:	48 63 ff             	movslq %edi,%rdi
  40176d:	e8 b8 a9 00 00       	callq  40c12a <malloc>
  401772:	48 89 43 30          	mov    %rax,0x30(%rbx)
  401776:	48 8b 43 10          	mov    0x10(%rbx),%rax
  40177a:	48 89 43 20          	mov    %rax,0x20(%rbx)
  40177e:	5b                   	pop    %rbx
  40177f:	c3                   	retq   

0000000000401780 <_ZN5LabelC1EPc4Rect>:
  401780:	55                   	push   %rbp
  401781:	48 89 f5             	mov    %rsi,%rbp
  401784:	53                   	push   %rbx
  401785:	48 89 fb             	mov    %rdi,%rbx
  401788:	48 83 ec 18          	sub    $0x18,%rsp
  40178c:	48 c7 c0 d0 40 43 00 	mov    $0x4340d0,%rax
  401793:	48 89 14 24          	mov    %rdx,(%rsp)
  401797:	48 83 c0 10          	add    $0x10,%rax
  40179b:	48 89 4c 24 08       	mov    %rcx,0x8(%rsp)
  4017a0:	48 89 07             	mov    %rax,(%rdi)
  4017a3:	48 89 f7             	mov    %rsi,%rdi
  4017a6:	e8 d9 94 00 00       	callq  40ac84 <strlen>
  4017ab:	89 43 20             	mov    %eax,0x20(%rbx)
  4017ae:	48 63 f8             	movslq %eax,%rdi
  4017b1:	e8 74 a9 00 00       	callq  40c12a <malloc>
  4017b6:	48 89 ee             	mov    %rbp,%rsi
  4017b9:	48 89 43 18          	mov    %rax,0x18(%rbx)
  4017bd:	48 89 c7             	mov    %rax,%rdi
  4017c0:	e8 92 e8 01 00       	callq  420057 <strcpy>
  4017c5:	48 8b 14 24          	mov    (%rsp),%rdx
  4017c9:	48 8b 4c 24 08       	mov    0x8(%rsp),%rcx
  4017ce:	48 89 53 08          	mov    %rdx,0x8(%rbx)
  4017d2:	48 89 4b 10          	mov    %rcx,0x10(%rbx)
  4017d6:	48 83 c4 18          	add    $0x18,%rsp
  4017da:	5b                   	pop    %rbx
  4017db:	5d                   	pop    %rbp
  4017dc:	c3                   	retq   
  4017dd:	90                   	nop
  4017de:	66 90                	xchg   %ax,%ax

00000000004017e0 <_ZN10ScrollViewC1E4Rect>:
  4017e0:	48 c7 c0 f8 40 43 00 	mov    $0x4340f8,%rax
  4017e7:	66 0f ef c0          	pxor   %xmm0,%xmm0
  4017eb:	c7 47 38 00 00 00 00 	movl   $0x0,0x38(%rdi)
  4017f2:	0f 11 47 28          	movups %xmm0,0x28(%rdi)
  4017f6:	48 83 c0 10          	add    $0x10,%rax
  4017fa:	48 89 77 08          	mov    %rsi,0x8(%rdi)
  4017fe:	48 89 07             	mov    %rax,(%rdi)
  401801:	48 89 57 10          	mov    %rdx,0x10(%rdi)
  401805:	c3                   	retq   
  401806:	66 2e 0f 1f 84 00 00 	nopw   %cs:0x0(%rax,%rax,1)
  40180d:	00 00 00 

0000000000401810 <_ZN8ListItemC1EPc>:
  401810:	55                   	push   %rbp
  401811:	48 89 fd             	mov    %rdi,%rbp
  401814:	53                   	push   %rbx
  401815:	48 89 f3             	mov    %rsi,%rbx
  401818:	48 83 ec 08          	sub    $0x8,%rsp
  40181c:	48 c7 c0 48 41 43 00 	mov    $0x434148,%rax
  401823:	48 83 c0 10          	add    $0x10,%rax
  401827:	48 89 07             	mov    %rax,(%rdi)
  40182a:	48 89 f7             	mov    %rsi,%rdi
  40182d:	e8 52 94 00 00       	callq  40ac84 <strlen>
  401832:	48 8d 78 01          	lea    0x1(%rax),%rdi
  401836:	e8 ef a8 00 00       	callq  40c12a <malloc>
  40183b:	48 89 de             	mov    %rbx,%rsi
  40183e:	48 89 45 18          	mov    %rax,0x18(%rbp)
  401842:	48 83 c4 08          	add    $0x8,%rsp
  401846:	48 89 c7             	mov    %rax,%rdi
  401849:	5b                   	pop    %rbx
  40184a:	5d                   	pop    %rbp
  40184b:	e9 07 e8 01 00       	jmpq   420057 <strcpy>

0000000000401850 <_ZN8ListViewC1E4Recti>:
  401850:	48 c7 c0 20 41 43 00 	mov    $0x434120,%rax
  401857:	66 0f ef c0          	pxor   %xmm0,%xmm0
  40185b:	c6 47 2c 00          	movb   $0x0,0x2c(%rdi)
  40185f:	c7 47 64 00 00 00 00 	movl   $0x0,0x64(%rdi)
  401866:	48 83 c0 10          	add    $0x10,%rax
  40186a:	0f 11 47 68          	movups %xmm0,0x68(%rdi)
  40186e:	48 89 07             	mov    %rax,(%rdi)
  401871:	c7 47 78 00 00 00 00 	movl   $0x0,0x78(%rdi)
  401878:	48 89 77 08          	mov    %rsi,0x8(%rdi)
  40187c:	48 89 57 10          	mov    %rdx,0x10(%rdi)
  401880:	89 4f 18             	mov    %ecx,0x18(%rdi)
  401883:	c3                   	retq   
  401884:	66 66 2e 0f 1f 84 00 	data16 nopw %cs:0x0(%rax,%rax,1)
  40188b:	00 00 00 00 
  40188f:	90                   	nop

0000000000401890 <_ZN8ListViewD1Ev>:
  401890:	48 c7 c0 20 41 43 00 	mov    $0x434120,%rax
  401897:	53                   	push   %rbx
  401898:	48 89 fb             	mov    %rdi,%rbx
  40189b:	48 83 c0 10          	add    $0x10,%rax
  40189f:	48 89 07             	mov    %rax,(%rdi)
  4018a2:	8b 47 78             	mov    0x78(%rdi),%eax
  4018a5:	85 c0                	test   %eax,%eax
  4018a7:	75 13                	jne    4018bc <_ZN8ListViewD1Ev+0x2c>
  4018a9:	eb 55                	jmp    401900 <_ZN8ListViewD1Ev+0x70>
  4018ab:	0f 1f 44 00 00       	nopl   0x0(%rax,%rax,1)
  4018b0:	e8 79 a7 00 00       	callq  40c02e <free>
  4018b5:	8b 43 78             	mov    0x78(%rbx),%eax
  4018b8:	85 c0                	test   %eax,%eax
  4018ba:	74 44                	je     401900 <_ZN8ListViewD1Ev+0x70>
  4018bc:	48 8b 7b 68          	mov    0x68(%rbx),%rdi
  4018c0:	48 8b 17             	mov    (%rdi),%rdx
  4018c3:	48 8b 4f 08          	mov    0x8(%rdi),%rcx
  4018c7:	48 85 d2             	test   %rdx,%rdx
  4018ca:	74 18                	je     4018e4 <_ZN8ListViewD1Ev+0x54>
  4018cc:	48 85 c9             	test   %rcx,%rcx
  4018cf:	74 13                	je     4018e4 <_ZN8ListViewD1Ev+0x54>
  4018d1:	48 89 4a 08          	mov    %rcx,0x8(%rdx)
  4018d5:	48 8b 4f 08          	mov    0x8(%rdi),%rcx
  4018d9:	48 85 c9             	test   %rcx,%rcx
  4018dc:	74 06                	je     4018e4 <_ZN8ListViewD1Ev+0x54>
  4018de:	48 89 11             	mov    %rdx,(%rcx)
  4018e1:	48 8b 17             	mov    (%rdi),%rdx
  4018e4:	83 e8 01             	sub    $0x1,%eax
  4018e7:	48 89 53 68          	mov    %rdx,0x68(%rbx)
  4018eb:	89 43 78             	mov    %eax,0x78(%rbx)
  4018ee:	75 c0                	jne    4018b0 <_ZN8ListViewD1Ev+0x20>
  4018f0:	48 89 4b 70          	mov    %rcx,0x70(%rbx)
  4018f4:	e8 35 a7 00 00       	callq  40c02e <free>
  4018f9:	8b 43 78             	mov    0x78(%rbx),%eax
  4018fc:	85 c0                	test   %eax,%eax
  4018fe:	75 bc                	jne    4018bc <_ZN8ListViewD1Ev+0x2c>
  401900:	5b                   	pop    %rbx
  401901:	c3                   	retq   
  401902:	66 66 2e 0f 1f 84 00 	data16 nopw %cs:0x0(%rax,%rax,1)
  401909:	00 00 00 00 
  40190d:	0f 1f 00             	nopl   (%rax)

0000000000401910 <_ZN8ListView14ResetScrollBarEv>:
  401910:	55                   	push   %rbp
  401911:	66 0f ef c9          	pxor   %xmm1,%xmm1
  401915:	66 0f ef c0          	pxor   %xmm0,%xmm0
  401919:	66 0f ef d2          	pxor   %xmm2,%xmm2
  40191d:	53                   	push   %rbx
  40191e:	48 89 fb             	mov    %rdi,%rbx
  401921:	48 83 ec 18          	sub    $0x18,%rsp
  401925:	f2 0f 2a 4f 78       	cvtsi2sdl 0x78(%rdi),%xmm1
  40192a:	f2 0f 2a 47 18       	cvtsi2sdl 0x18(%rdi),%xmm0
  40192f:	f2 0f 2a 57 14       	cvtsi2sdl 0x14(%rdi),%xmm2
  401934:	f2 0f 11 4c 24 08    	movsd  %xmm1,0x8(%rsp)
  40193a:	f2 0f 59 c1          	mulsd  %xmm1,%xmm0
  40193e:	f2 0f 5c c2          	subsd  %xmm2,%xmm0
  401942:	f2 0f 59 05 96 0f 02 	mulsd  0x20f96(%rip),%xmm0        # 4228e0 <_fini+0x1f>
  401949:	00 
  40194a:	e8 ba f5 01 00       	callq  420f09 <floor>
  40194f:	f2 0f 10 4c 24 08    	movsd  0x8(%rsp),%xmm1
  401955:	8b 6b 14             	mov    0x14(%rbx),%ebp
  401958:	f2 0f 2c c0          	cvttsd2si %xmm0,%eax
  40195c:	66 0f ef c0          	pxor   %xmm0,%xmm0
  401960:	f2 0f 2a 43 18       	cvtsi2sdl 0x18(%rbx),%xmm0
  401965:	89 43 1c             	mov    %eax,0x1c(%rbx)
  401968:	f2 0f 59 c1          	mulsd  %xmm1,%xmm0
  40196c:	66 0f ef c9          	pxor   %xmm1,%xmm1
  401970:	f2 0f 2a cd          	cvtsi2sd %ebp,%xmm1
  401974:	f2 0f 5c c1          	subsd  %xmm1,%xmm0
  401978:	f2 0f 59 05 60 0f 02 	mulsd  0x20f60(%rip),%xmm0        # 4228e0 <_fini+0x1f>
  40197f:	00 
  401980:	e8 84 f5 01 00       	callq  420f09 <floor>
  401985:	89 e8                	mov    %ebp,%eax
  401987:	66 0f ef c9          	pxor   %xmm1,%xmm1
  40198b:	c7 43 60 00 00 00 00 	movl   $0x0,0x60(%rbx)
  401992:	c1 e8 1f             	shr    $0x1f,%eax
  401995:	01 e8                	add    %ebp,%eax
  401997:	d1 f8                	sar    %eax
  401999:	f2 0f 2a c8          	cvtsi2sd %eax,%xmm1
  40199d:	f2 0f 5e c8          	divsd  %xmm0,%xmm1
  4019a1:	f2 0f 2c c1          	cvttsd2si %xmm1,%eax
  4019a5:	89 43 20             	mov    %eax,0x20(%rbx)
  4019a8:	8b 43 14             	mov    0x14(%rbx),%eax
  4019ab:	2b 43 1c             	sub    0x1c(%rbx),%eax
  4019ae:	89 43 28             	mov    %eax,0x28(%rbx)
  4019b1:	48 83 c4 18          	add    $0x18,%rsp
  4019b5:	5b                   	pop    %rbx
  4019b6:	5d                   	pop    %rbp
  4019b7:	c3                   	retq   
  4019b8:	0f 1f 84 00 00 00 00 	nopl   0x0(%rax,%rax,1)
  4019bf:	00 

00000000004019c0 <_Z13_CreateWindowP10win_info_t>:
  4019c0:	53                   	push   %rbx
  4019c1:	48 89 fe             	mov    %rdi,%rsi
  4019c4:	48 89 fb             	mov    %rdi,%rbx
  4019c7:	45 31 c9             	xor    %r9d,%r9d
  4019ca:	45 31 c0             	xor    %r8d,%r8d
  4019cd:	31 c9                	xor    %ecx,%ecx
  4019cf:	31 d2                	xor    %edx,%edx
  4019d1:	bf 16 00 00 00       	mov    $0x16,%edi
  4019d6:	e8 32 11 00 00       	callq  402b0d <syscall>
  4019db:	48 8b 43 74          	mov    0x74(%rbx),%rax
  4019df:	5b                   	pop    %rbx
  4019e0:	c3                   	retq   
  4019e1:	66 66 2e 0f 1f 84 00 	data16 nopw %cs:0x0(%rax,%rax,1)
  4019e8:	00 00 00 00 
  4019ec:	0f 1f 40 00          	nopl   0x0(%rax)

00000000004019f0 <_Z14_DestroyWindowPv>:
  4019f0:	48 89 fe             	mov    %rdi,%rsi
  4019f3:	45 31 c9             	xor    %r9d,%r9d
  4019f6:	45 31 c0             	xor    %r8d,%r8d
  4019f9:	31 c9                	xor    %ecx,%ecx
  4019fb:	31 d2                	xor    %edx,%edx
  4019fd:	bf 17 00 00 00       	mov    $0x17,%edi
  401a02:	e9 06 11 00 00       	jmpq   402b0d <syscall>
  401a07:	66 0f 1f 84 00 00 00 	nopw   0x0(%rax,%rax,1)
  401a0e:	00 00 

0000000000401a10 <_Z12_PaintWindowPvP7Surface>:
  401a10:	48 89 f2             	mov    %rsi,%rdx
  401a13:	45 31 c9             	xor    %r9d,%r9d
  401a16:	48 89 fe             	mov    %rdi,%rsi
  401a19:	45 31 c0             	xor    %r8d,%r8d
  401a1c:	31 c9                	xor    %ecx,%ecx
  401a1e:	bf 1a 00 00 00       	mov    $0x1a,%edi
  401a23:	e9 e5 10 00 00       	jmpq   402b0d <syscall>
  401a28:	0f 1f 84 00 00 00 00 	nopl   0x0(%rax,%rax,1)
  401a2f:	00 

0000000000401a30 <_Z12CreateWindowP10win_info_t>:
  401a30:	41 56                	push   %r14
  401a32:	41 55                	push   %r13
  401a34:	41 54                	push   %r12
  401a36:	55                   	push   %rbp
  401a37:	48 89 fd             	mov    %rdi,%rbp
  401a3a:	53                   	push   %rbx
  401a3b:	48 83 ec 10          	sub    $0x10,%rsp
  401a3f:	e8 7c ff ff ff       	callq  4019c0 <_Z13_CreateWindowP10win_info_t>
  401a44:	bf d8 00 00 00       	mov    $0xd8,%edi
  401a49:	49 89 c4             	mov    %rax,%r12
  401a4c:	e8 ff ef ff ff       	callq  400a50 <_Znwm>
  401a51:	b9 1b 00 00 00       	mov    $0x1b,%ecx
  401a56:	48 89 ee             	mov    %rbp,%rsi
  401a59:	ba 7c 00 00 00       	mov    $0x7c,%edx
  401a5e:	48 89 c3             	mov    %rax,%rbx
  401a61:	31 c0                	xor    %eax,%eax
  401a63:	48 89 df             	mov    %rbx,%rdi
  401a66:	f3 48 ab             	rep stos %rax,%es:(%rdi)
  401a69:	48 8d 7b 20          	lea    0x20(%rbx),%rdi
  401a6d:	4c 89 63 18          	mov    %r12,0x18(%rbx)
  401a71:	c7 83 9c 00 00 00 c0 	movl   $0xffbec0c0,0x9c(%rbx)
  401a78:	c0 be ff 
  401a7b:	c7 83 c8 00 00 00 ff 	movl   $0xffffffff,0xc8(%rbx)
  401a82:	ff ff ff 
  401a85:	e8 f7 90 00 00       	callq  40ab81 <memcpy>
  401a8a:	44 0f b7 65 04       	movzwl 0x4(%rbp),%r12d
  401a8f:	44 0f b7 6d 06       	movzwl 0x6(%rbp),%r13d
  401a94:	42 8d 04 a5 00 00 00 	lea    0x0(,%r12,4),%eax
  401a9b:	00 
  401a9c:	41 8d bd b4 00 00 00 	lea    0xb4(%r13),%edi
  401aa3:	25 f0 ff 03 00       	and    $0x3fff0,%eax
  401aa8:	44 8d 70 10          	lea    0x10(%rax),%r14d
  401aac:	41 0f af fe          	imul   %r14d,%edi
  401ab0:	c1 e7 02             	shl    $0x2,%edi
  401ab3:	48 63 ff             	movslq %edi,%rdi
  401ab6:	e8 6f a6 00 00       	callq  40c12a <malloc>
  401abb:	0f b7 7d 06          	movzwl 0x6(%rbp),%edi
  401abf:	41 0f af fe          	imul   %r14d,%edi
  401ac3:	48 63 ff             	movslq %edi,%rdi
  401ac6:	e8 5f a6 00 00       	callq  40c12a <malloc>
  401acb:	44 89 64 24 0c       	mov    %r12d,0xc(%rsp)
  401ad0:	66 0f ef c9          	pxor   %xmm1,%xmm1
  401ad4:	66 0f 6e 44 24 0c    	movd   0xc(%rsp),%xmm0
  401ada:	44 89 6c 24 0c       	mov    %r13d,0xc(%rsp)
  401adf:	66 0f 6e 5c 24 0c    	movd   0xc(%rsp),%xmm3
  401ae5:	66 0f 6f d1          	movdqa %xmm1,%xmm2
  401ae9:	48 89 83 b8 00 00 00 	mov    %rax,0xb8(%rbx)
  401af0:	48 89 d8             	mov    %rbx,%rax
  401af3:	66 0f 62 c3          	punpckldq %xmm3,%xmm0
  401af7:	c6 83 b4 00 00 00 00 	movb   $0x0,0xb4(%rbx)
  401afe:	66 0f 6c d0          	punpcklqdq %xmm0,%xmm2
  401b02:	c6 83 c0 00 00 00 00 	movb   $0x0,0xc0(%rbx)
  401b09:	0f 11 93 a0 00 00 00 	movups %xmm2,0xa0(%rbx)
  401b10:	c7 83 b0 00 00 00 00 	movl   $0x0,0xb0(%rbx)
  401b17:	00 00 00 
  401b1a:	48 83 c4 10          	add    $0x10,%rsp
  401b1e:	5b                   	pop    %rbx
  401b1f:	5d                   	pop    %rbp
  401b20:	41 5c                	pop    %r12
  401b22:	41 5d                	pop    %r13
  401b24:	41 5e                	pop    %r14
  401b26:	c3                   	retq   
  401b27:	66 0f 1f 84 00 00 00 	nopw   0x0(%rax,%rax,1)
  401b2e:	00 00 

0000000000401b30 <_Z13DestroyWindowP6Window>:
  401b30:	48 8b 7f 18          	mov    0x18(%rdi),%rdi
  401b34:	e9 b7 fe ff ff       	jmpq   4019f0 <_Z14_DestroyWindowPv>
  401b39:	0f 1f 80 00 00 00 00 	nopl   0x0(%rax)

0000000000401b40 <_Z11PaintWindowP6Window>:
  401b40:	41 54                	push   %r12
  401b42:	31 f6                	xor    %esi,%esi
  401b44:	49 89 fc             	mov    %rdi,%r12
  401b47:	55                   	push   %rbp
  401b48:	48 8d af a0 00 00 00 	lea    0xa0(%rdi),%rbp
  401b4f:	53                   	push   %rbx
  401b50:	0f b7 4f 26          	movzwl 0x26(%rdi),%ecx
  401b54:	49 89 e9             	mov    %rbp,%r9
  401b57:	0f b7 57 24          	movzwl 0x24(%rdi),%edx
  401b5b:	44 8b 87 9c 00 00 00 	mov    0x9c(%rdi),%r8d
  401b62:	31 ff                	xor    %edi,%edi
  401b64:	e8 d7 05 00 00       	callq  402140 <_Z8DrawRectiiii10RGBAColourP7Surface>
  401b69:	41 8b 4c 24 10       	mov    0x10(%r12),%ecx
  401b6e:	85 c9                	test   %ecx,%ecx
  401b70:	7e 64                	jle    401bd6 <_Z11PaintWindowP6Window+0x96>
  401b72:	31 db                	xor    %ebx,%ebx
  401b74:	0f 1f 40 00          	nopl   0x0(%rax)
  401b78:	49 8b 04 24          	mov    (%r12),%rax
  401b7c:	85 c9                	test   %ecx,%ecx
  401b7e:	40 0f 94 c6          	sete   %sil
  401b82:	48 85 c0             	test   %rax,%rax
  401b85:	0f 94 c2             	sete   %dl
  401b88:	40 08 d6             	or     %dl,%sil
  401b8b:	75 73                	jne    401c00 <_Z11PaintWindowP6Window+0xc0>
  401b8d:	39 cb                	cmp    %ecx,%ebx
  401b8f:	73 6f                	jae    401c00 <_Z11PaintWindowP6Window+0xc0>
  401b91:	85 db                	test   %ebx,%ebx
  401b93:	74 7b                	je     401c10 <_Z11PaintWindowP6Window+0xd0>
  401b95:	48 8b 30             	mov    (%rax),%rsi
  401b98:	48 85 f6             	test   %rsi,%rsi
  401b9b:	74 73                	je     401c10 <_Z11PaintWindowP6Window+0xd0>
  401b9d:	31 c0                	xor    %eax,%eax
  401b9f:	eb 16                	jmp    401bb7 <_Z11PaintWindowP6Window+0x77>
  401ba1:	0f 1f 80 00 00 00 00 	nopl   0x0(%rax)
  401ba8:	39 c8                	cmp    %ecx,%eax
  401baa:	73 12                	jae    401bbe <_Z11PaintWindowP6Window+0x7e>
  401bac:	48 8b 16             	mov    (%rsi),%rdx
  401baf:	48 85 d2             	test   %rdx,%rdx
  401bb2:	74 0a                	je     401bbe <_Z11PaintWindowP6Window+0x7e>
  401bb4:	48 89 d6             	mov    %rdx,%rsi
  401bb7:	83 c0 01             	add    $0x1,%eax
  401bba:	39 d8                	cmp    %ebx,%eax
  401bbc:	72 ea                	jb     401ba8 <_Z11PaintWindowP6Window+0x68>
  401bbe:	48 8b 7e 10          	mov    0x10(%rsi),%rdi
  401bc2:	48 8b 07             	mov    (%rdi),%rax
  401bc5:	48 89 ee             	mov    %rbp,%rsi
  401bc8:	83 c3 01             	add    $0x1,%ebx
  401bcb:	ff 10                	callq  *(%rax)
  401bcd:	41 8b 4c 24 10       	mov    0x10(%r12),%ecx
  401bd2:	39 d9                	cmp    %ebx,%ecx
  401bd4:	7f a2                	jg     401b78 <_Z11PaintWindowP6Window+0x38>
  401bd6:	49 8b 84 24 d0 00 00 	mov    0xd0(%r12),%rax
  401bdd:	00 
  401bde:	48 85 c0             	test   %rax,%rax
  401be1:	74 05                	je     401be8 <_Z11PaintWindowP6Window+0xa8>
  401be3:	48 89 ef             	mov    %rbp,%rdi
  401be6:	ff d0                	callq  *%rax
  401be8:	49 8b 7c 24 18       	mov    0x18(%r12),%rdi
  401bed:	5b                   	pop    %rbx
  401bee:	48 89 ee             	mov    %rbp,%rsi
  401bf1:	5d                   	pop    %rbp
  401bf2:	41 5c                	pop    %r12
  401bf4:	e9 17 fe ff ff       	jmpq   401a10 <_Z12_PaintWindowPvP7Surface>
  401bf9:	0f 1f 80 00 00 00 00 	nopl   0x0(%rax)
  401c00:	48 8b 78 10          	mov    0x10(%rax),%rdi
  401c04:	eb bc                	jmp    401bc2 <_Z11PaintWindowP6Window+0x82>
  401c06:	66 2e 0f 1f 84 00 00 	nopw   %cs:0x0(%rax,%rax,1)
  401c0d:	00 00 00 
  401c10:	48 89 c6             	mov    %rax,%rsi
  401c13:	eb a9                	jmp    401bbe <_Z11PaintWindowP6Window+0x7e>
  401c15:	66 66 2e 0f 1f 84 00 	data16 nopw %cs:0x0(%rax,%rax,1)
  401c1c:	00 00 00 00 

0000000000401c20 <_Z15HandleMouseDownP6Window8Vector2i>:
  401c20:	44 8b 47 10          	mov    0x10(%rdi),%r8d
  401c24:	48 89 f0             	mov    %rsi,%rax
  401c27:	48 c1 e8 20          	shr    $0x20,%rax
  401c2b:	45 85 c0             	test   %r8d,%r8d
  401c2e:	0f 8e b8 00 00 00    	jle    401cec <_Z15HandleMouseDownP6Window8Vector2i+0xcc>
  401c34:	41 54                	push   %r12
  401c36:	41 89 f3             	mov    %esi,%r11d
  401c39:	49 89 c4             	mov    %rax,%r12
  401c3c:	55                   	push   %rbp
  401c3d:	53                   	push   %rbx
  401c3e:	48 8b 2f             	mov    (%rdi),%rbp
  401c41:	48 85 ed             	test   %rbp,%rbp
  401c44:	41 0f 94 c2          	sete   %r10b
  401c48:	31 db                	xor    %ebx,%ebx
  401c4a:	eb 20                	jmp    401c6c <_Z15HandleMouseDownP6Window8Vector2i+0x4c>
  401c4c:	0f 1f 40 00          	nopl   0x0(%rax)
  401c50:	48 8b 45 10          	mov    0x10(%rbp),%rax
  401c54:	8b 50 08             	mov    0x8(%rax),%edx
  401c57:	8b 48 0c             	mov    0xc(%rax),%ecx
  401c5a:	44 39 da             	cmp    %r11d,%edx
  401c5d:	7f 05                	jg     401c64 <_Z15HandleMouseDownP6Window8Vector2i+0x44>
  401c5f:	41 39 cc             	cmp    %ecx,%r12d
  401c62:	7f 4c                	jg     401cb0 <_Z15HandleMouseDownP6Window8Vector2i+0x90>
  401c64:	83 c3 01             	add    $0x1,%ebx
  401c67:	44 39 c3             	cmp    %r8d,%ebx
  401c6a:	74 6f                	je     401cdb <_Z15HandleMouseDownP6Window8Vector2i+0xbb>
  401c6c:	41 39 d8             	cmp    %ebx,%r8d
  401c6f:	0f 96 c0             	setbe  %al
  401c72:	44 08 d0             	or     %r10b,%al
  401c75:	41 89 c1             	mov    %eax,%r9d
  401c78:	75 d6                	jne    401c50 <_Z15HandleMouseDownP6Window8Vector2i+0x30>
  401c7a:	85 db                	test   %ebx,%ebx
  401c7c:	74 62                	je     401ce0 <_Z15HandleMouseDownP6Window8Vector2i+0xc0>
  401c7e:	48 8b 4d 00          	mov    0x0(%rbp),%rcx
  401c82:	48 85 c9             	test   %rcx,%rcx
  401c85:	74 59                	je     401ce0 <_Z15HandleMouseDownP6Window8Vector2i+0xc0>
  401c87:	31 c0                	xor    %eax,%eax
  401c89:	eb 14                	jmp    401c9f <_Z15HandleMouseDownP6Window8Vector2i+0x7f>
  401c8b:	0f 1f 44 00 00       	nopl   0x0(%rax,%rax,1)
  401c90:	39 d8                	cmp    %ebx,%eax
  401c92:	73 13                	jae    401ca7 <_Z15HandleMouseDownP6Window8Vector2i+0x87>
  401c94:	48 8b 11             	mov    (%rcx),%rdx
  401c97:	48 85 d2             	test   %rdx,%rdx
  401c9a:	74 0b                	je     401ca7 <_Z15HandleMouseDownP6Window8Vector2i+0x87>
  401c9c:	48 89 d1             	mov    %rdx,%rcx
  401c9f:	83 c0 01             	add    $0x1,%eax
  401ca2:	44 39 c0             	cmp    %r8d,%eax
  401ca5:	72 e9                	jb     401c90 <_Z15HandleMouseDownP6Window8Vector2i+0x70>
  401ca7:	48 8b 41 10          	mov    0x10(%rcx),%rax
  401cab:	eb a7                	jmp    401c54 <_Z15HandleMouseDownP6Window8Vector2i+0x34>
  401cad:	0f 1f 00             	nopl   (%rax)
  401cb0:	03 50 10             	add    0x10(%rax),%edx
  401cb3:	44 39 da             	cmp    %r11d,%edx
  401cb6:	7e ac                	jle    401c64 <_Z15HandleMouseDownP6Window8Vector2i+0x44>
  401cb8:	03 48 14             	add    0x14(%rax),%ecx
  401cbb:	44 39 e1             	cmp    %r12d,%ecx
  401cbe:	7e a4                	jle    401c64 <_Z15HandleMouseDownP6Window8Vector2i+0x44>
  401cc0:	45 84 c9             	test   %r9b,%r9b
  401cc3:	74 28                	je     401ced <_Z15HandleMouseDownP6Window8Vector2i+0xcd>
  401cc5:	48 8b 45 10          	mov    0x10(%rbp),%rax
  401cc9:	48 8b 10             	mov    (%rax),%rdx
  401ccc:	48 89 fd             	mov    %rdi,%rbp
  401ccf:	48 89 c7             	mov    %rax,%rdi
  401cd2:	ff 52 08             	callq  *0x8(%rdx)
  401cd5:	89 9d c8 00 00 00    	mov    %ebx,0xc8(%rbp)
  401cdb:	5b                   	pop    %rbx
  401cdc:	5d                   	pop    %rbp
  401cdd:	41 5c                	pop    %r12
  401cdf:	c3                   	retq   
  401ce0:	48 89 e9             	mov    %rbp,%rcx
  401ce3:	48 8b 41 10          	mov    0x10(%rcx),%rax
  401ce7:	e9 68 ff ff ff       	jmpq   401c54 <_Z15HandleMouseDownP6Window8Vector2i+0x34>
  401cec:	c3                   	retq   
  401ced:	85 db                	test   %ebx,%ebx
  401cef:	74 2a                	je     401d1b <_Z15HandleMouseDownP6Window8Vector2i+0xfb>
  401cf1:	48 8b 55 00          	mov    0x0(%rbp),%rdx
  401cf5:	48 85 d2             	test   %rdx,%rdx
  401cf8:	74 21                	je     401d1b <_Z15HandleMouseDownP6Window8Vector2i+0xfb>
  401cfa:	31 c0                	xor    %eax,%eax
  401cfc:	eb 10                	jmp    401d0e <_Z15HandleMouseDownP6Window8Vector2i+0xee>
  401cfe:	44 39 c0             	cmp    %r8d,%eax
  401d01:	73 12                	jae    401d15 <_Z15HandleMouseDownP6Window8Vector2i+0xf5>
  401d03:	48 8b 0a             	mov    (%rdx),%rcx
  401d06:	48 85 c9             	test   %rcx,%rcx
  401d09:	74 0a                	je     401d15 <_Z15HandleMouseDownP6Window8Vector2i+0xf5>
  401d0b:	48 89 ca             	mov    %rcx,%rdx
  401d0e:	83 c0 01             	add    $0x1,%eax
  401d11:	39 d8                	cmp    %ebx,%eax
  401d13:	72 e9                	jb     401cfe <_Z15HandleMouseDownP6Window8Vector2i+0xde>
  401d15:	48 8b 42 10          	mov    0x10(%rdx),%rax
  401d19:	eb ae                	jmp    401cc9 <_Z15HandleMouseDownP6Window8Vector2i+0xa9>
  401d1b:	48 89 ea             	mov    %rbp,%rdx
  401d1e:	eb f5                	jmp    401d15 <_Z15HandleMouseDownP6Window8Vector2i+0xf5>

0000000000401d20 <_Z13HandleMouseUpP6Window8Vector2i>:
  401d20:	53                   	push   %rbx
  401d21:	48 89 fb             	mov    %rdi,%rbx
  401d24:	8b bf c8 00 00 00    	mov    0xc8(%rdi),%edi
  401d2a:	85 ff                	test   %edi,%edi
  401d2c:	0f 88 ce 00 00 00    	js     401e00 <_Z13HandleMouseUpP6Window8Vector2i+0xe0>
  401d32:	44 8b 4b 10          	mov    0x10(%rbx),%r9d
  401d36:	48 8b 03             	mov    (%rbx),%rax
  401d39:	45 85 c9             	test   %r9d,%r9d
  401d3c:	41 0f 94 c0          	sete   %r8b
  401d40:	48 85 c0             	test   %rax,%rax
  401d43:	0f 94 c1             	sete   %cl
  401d46:	41 08 c8             	or     %cl,%r8b
  401d49:	75 45                	jne    401d90 <_Z13HandleMouseUpP6Window8Vector2i+0x70>
  401d4b:	44 39 cf             	cmp    %r9d,%edi
  401d4e:	73 40                	jae    401d90 <_Z13HandleMouseUpP6Window8Vector2i+0x70>
  401d50:	85 ff                	test   %edi,%edi
  401d52:	0f 84 c0 00 00 00    	je     401e18 <_Z13HandleMouseUpP6Window8Vector2i+0xf8>
  401d58:	4c 8b 00             	mov    (%rax),%r8
  401d5b:	4d 85 c0             	test   %r8,%r8
  401d5e:	0f 84 b4 00 00 00    	je     401e18 <_Z13HandleMouseUpP6Window8Vector2i+0xf8>
  401d64:	31 c0                	xor    %eax,%eax
  401d66:	eb 18                	jmp    401d80 <_Z13HandleMouseUpP6Window8Vector2i+0x60>
  401d68:	0f 1f 84 00 00 00 00 	nopl   0x0(%rax,%rax,1)
  401d6f:	00 
  401d70:	41 39 c1             	cmp    %eax,%r9d
  401d73:	76 12                	jbe    401d87 <_Z13HandleMouseUpP6Window8Vector2i+0x67>
  401d75:	49 8b 08             	mov    (%r8),%rcx
  401d78:	48 85 c9             	test   %rcx,%rcx
  401d7b:	74 0a                	je     401d87 <_Z13HandleMouseUpP6Window8Vector2i+0x67>
  401d7d:	49 89 c8             	mov    %rcx,%r8
  401d80:	83 c0 01             	add    $0x1,%eax
  401d83:	39 c7                	cmp    %eax,%edi
  401d85:	77 e9                	ja     401d70 <_Z13HandleMouseUpP6Window8Vector2i+0x50>
  401d87:	49 8b 78 10          	mov    0x10(%r8),%rdi
  401d8b:	eb 07                	jmp    401d94 <_Z13HandleMouseUpP6Window8Vector2i+0x74>
  401d8d:	0f 1f 00             	nopl   (%rax)
  401d90:	48 8b 78 10          	mov    0x10(%rax),%rdi
  401d94:	48 8b 07             	mov    (%rdi),%rax
  401d97:	ff 50 10             	callq  *0x10(%rax)
  401d9a:	8b 73 10             	mov    0x10(%rbx),%esi
  401d9d:	48 8b 03             	mov    (%rbx),%rax
  401da0:	8b bb c8 00 00 00    	mov    0xc8(%rbx),%edi
  401da6:	85 f6                	test   %esi,%esi
  401da8:	0f 94 c1             	sete   %cl
  401dab:	48 85 c0             	test   %rax,%rax
  401dae:	0f 94 c2             	sete   %dl
  401db1:	08 d1                	or     %dl,%cl
  401db3:	75 3b                	jne    401df0 <_Z13HandleMouseUpP6Window8Vector2i+0xd0>
  401db5:	39 f7                	cmp    %esi,%edi
  401db7:	73 37                	jae    401df0 <_Z13HandleMouseUpP6Window8Vector2i+0xd0>
  401db9:	85 ff                	test   %edi,%edi
  401dbb:	74 53                	je     401e10 <_Z13HandleMouseUpP6Window8Vector2i+0xf0>
  401dbd:	48 8b 08             	mov    (%rax),%rcx
  401dc0:	48 85 c9             	test   %rcx,%rcx
  401dc3:	74 4b                	je     401e10 <_Z13HandleMouseUpP6Window8Vector2i+0xf0>
  401dc5:	31 c0                	xor    %eax,%eax
  401dc7:	eb 16                	jmp    401ddf <_Z13HandleMouseUpP6Window8Vector2i+0xbf>
  401dc9:	0f 1f 80 00 00 00 00 	nopl   0x0(%rax)
  401dd0:	39 c6                	cmp    %eax,%esi
  401dd2:	76 12                	jbe    401de6 <_Z13HandleMouseUpP6Window8Vector2i+0xc6>
  401dd4:	48 8b 11             	mov    (%rcx),%rdx
  401dd7:	48 85 d2             	test   %rdx,%rdx
  401dda:	74 0a                	je     401de6 <_Z13HandleMouseUpP6Window8Vector2i+0xc6>
  401ddc:	48 89 d1             	mov    %rdx,%rcx
  401ddf:	83 c0 01             	add    $0x1,%eax
  401de2:	39 c7                	cmp    %eax,%edi
  401de4:	77 ea                	ja     401dd0 <_Z13HandleMouseUpP6Window8Vector2i+0xb0>
  401de6:	48 8b 41 10          	mov    0x10(%rcx),%rax
  401dea:	5b                   	pop    %rbx
  401deb:	c3                   	retq   
  401dec:	0f 1f 40 00          	nopl   0x0(%rax)
  401df0:	48 8b 40 10          	mov    0x10(%rax),%rax
  401df4:	5b                   	pop    %rbx
  401df5:	c3                   	retq   
  401df6:	66 2e 0f 1f 84 00 00 	nopw   %cs:0x0(%rax,%rax,1)
  401dfd:	00 00 00 
  401e00:	c7 83 c8 00 00 00 ff 	movl   $0xffffffff,0xc8(%rbx)
  401e07:	ff ff ff 
  401e0a:	31 c0                	xor    %eax,%eax
  401e0c:	5b                   	pop    %rbx
  401e0d:	c3                   	retq   
  401e0e:	66 90                	xchg   %ax,%ax
  401e10:	48 89 c1             	mov    %rax,%rcx
  401e13:	eb d1                	jmp    401de6 <_Z13HandleMouseUpP6Window8Vector2i+0xc6>
  401e15:	0f 1f 00             	nopl   (%rax)
  401e18:	49 89 c0             	mov    %rax,%r8
  401e1b:	e9 67 ff ff ff       	jmpq   401d87 <_Z13HandleMouseUpP6Window8Vector2i+0x67>

0000000000401e20 <_Z9AddWidgetP6WidgetP6Window>:
  401e20:	55                   	push   %rbp
  401e21:	48 89 fd             	mov    %rdi,%rbp
  401e24:	bf 18 00 00 00       	mov    $0x18,%edi
  401e29:	53                   	push   %rbx
  401e2a:	48 89 f3             	mov    %rsi,%rbx
  401e2d:	48 83 ec 08          	sub    $0x8,%rsp
  401e31:	e8 1a ec ff ff       	callq  400a50 <_Znwm>
  401e36:	66 0f ef c0          	pxor   %xmm0,%xmm0
  401e3a:	48 83 3b 00          	cmpq   $0x0,(%rbx)
  401e3e:	0f 11 00             	movups %xmm0,(%rax)
  401e41:	48 89 68 10          	mov    %rbp,0x10(%rax)
  401e45:	74 29                	je     401e70 <_Z9AddWidgetP6WidgetP6Window+0x50>
  401e47:	48 8b 53 08          	mov    0x8(%rbx),%rdx
  401e4b:	48 85 d2             	test   %rdx,%rdx
  401e4e:	74 07                	je     401e57 <_Z9AddWidgetP6WidgetP6Window+0x37>
  401e50:	48 89 02             	mov    %rax,(%rdx)
  401e53:	48 89 50 08          	mov    %rdx,0x8(%rax)
  401e57:	48 89 43 08          	mov    %rax,0x8(%rbx)
  401e5b:	83 43 10 01          	addl   $0x1,0x10(%rbx)
  401e5f:	48 83 c4 08          	add    $0x8,%rsp
  401e63:	5b                   	pop    %rbx
  401e64:	5d                   	pop    %rbp
  401e65:	c3                   	retq   
  401e66:	66 2e 0f 1f 84 00 00 	nopw   %cs:0x0(%rax,%rax,1)
  401e6d:	00 00 00 
  401e70:	48 89 03             	mov    %rax,(%rbx)
  401e73:	48 89 43 08          	mov    %rax,0x8(%rbx)
  401e77:	83 43 10 01          	addl   $0x1,0x10(%rbx)
  401e7b:	48 83 c4 08          	add    $0x8,%rsp
  401e7f:	5b                   	pop    %rbx
  401e80:	5d                   	pop    %rbp
  401e81:	c3                   	retq   
  401e82:	66 2e 0f 1f 84 00 00 	nopw   %cs:0x0(%rax,%rax,1)
  401e89:	00 00 00 
  401e8c:	0f 1f 40 00          	nopl   0x0(%rax)

0000000000401e90 <_Z18memset32_optimizedPvjm>:
  401e90:	4c 8d 4a ff          	lea    -0x1(%rdx),%r9
  401e94:	48 85 d2             	test   %rdx,%rdx
  401e97:	74 61                	je     401efa <_Z18memset32_optimizedPvjm+0x6a>
  401e99:	49 83 f9 02          	cmp    $0x2,%r9
  401e9d:	76 48                	jbe    401ee7 <_Z18memset32_optimizedPvjm+0x57>
  401e9f:	89 74 24 f4          	mov    %esi,-0xc(%rsp)
  401ea3:	66 0f 6e 4c 24 f4    	movd   -0xc(%rsp),%xmm1
  401ea9:	49 89 d0             	mov    %rdx,%r8
  401eac:	31 c0                	xor    %eax,%eax
  401eae:	49 c1 e8 02          	shr    $0x2,%r8
  401eb2:	66 0f 70 c1 00       	pshufd $0x0,%xmm1,%xmm0
  401eb7:	66 0f 1f 84 00 00 00 	nopw   0x0(%rax,%rax,1)
  401ebe:	00 00 
  401ec0:	48 89 c1             	mov    %rax,%rcx
  401ec3:	48 83 c0 01          	add    $0x1,%rax
  401ec7:	48 c1 e1 04          	shl    $0x4,%rcx
  401ecb:	0f 11 04 0f          	movups %xmm0,(%rdi,%rcx,1)
  401ecf:	49 39 c0             	cmp    %rax,%r8
  401ed2:	75 ec                	jne    401ec0 <_Z18memset32_optimizedPvjm+0x30>
  401ed4:	48 89 d0             	mov    %rdx,%rax
  401ed7:	48 83 e0 fc          	and    $0xfffffffffffffffc,%rax
  401edb:	48 8d 3c 87          	lea    (%rdi,%rax,4),%rdi
  401edf:	49 29 c1             	sub    %rax,%r9
  401ee2:	48 39 c2             	cmp    %rax,%rdx
  401ee5:	74 13                	je     401efa <_Z18memset32_optimizedPvjm+0x6a>
  401ee7:	89 37                	mov    %esi,(%rdi)
  401ee9:	4d 85 c9             	test   %r9,%r9
  401eec:	74 0c                	je     401efa <_Z18memset32_optimizedPvjm+0x6a>
  401eee:	89 77 04             	mov    %esi,0x4(%rdi)
  401ef1:	49 83 f9 01          	cmp    $0x1,%r9
  401ef5:	74 03                	je     401efa <_Z18memset32_optimizedPvjm+0x6a>
  401ef7:	89 77 08             	mov    %esi,0x8(%rdi)
  401efa:	c3                   	retq   
  401efb:	0f 1f 44 00 00       	nopl   0x0(%rax,%rax,1)

0000000000401f00 <_Z18memset64_optimizedPvmm>:
  401f00:	41 54                	push   %r12
  401f02:	55                   	push   %rbp
  401f03:	48 89 f5             	mov    %rsi,%rbp
  401f06:	53                   	push   %rbx
  401f07:	48 89 fb             	mov    %rdi,%rbx
  401f0a:	48 83 ec 10          	sub    $0x10,%rsp
  401f0e:	83 e7 0f             	and    $0xf,%edi
  401f11:	74 5d                	je     401f70 <_Z18memset64_optimizedPvmm+0x70>
  401f13:	48 85 d2             	test   %rdx,%rdx
  401f16:	74 47                	je     401f5f <_Z18memset64_optimizedPvmm+0x5f>
  401f18:	48 83 fa 01          	cmp    $0x1,%rdx
  401f1c:	74 3e                	je     401f5c <_Z18memset64_optimizedPvmm+0x5c>
  401f1e:	48 89 6c 24 08       	mov    %rbp,0x8(%rsp)
  401f23:	f3 0f 7e 44 24 08    	movq   0x8(%rsp),%xmm0
  401f29:	48 89 d6             	mov    %rdx,%rsi
  401f2c:	31 c0                	xor    %eax,%eax
  401f2e:	48 d1 ee             	shr    %rsi
  401f31:	66 0f 6c c0          	punpcklqdq %xmm0,%xmm0
  401f35:	0f 1f 00             	nopl   (%rax)
  401f38:	48 89 c1             	mov    %rax,%rcx
  401f3b:	48 83 c0 01          	add    $0x1,%rax
  401f3f:	48 c1 e1 04          	shl    $0x4,%rcx
  401f43:	0f 11 04 0b          	movups %xmm0,(%rbx,%rcx,1)
  401f47:	48 39 c6             	cmp    %rax,%rsi
  401f4a:	75 ec                	jne    401f38 <_Z18memset64_optimizedPvmm+0x38>
  401f4c:	48 89 d0             	mov    %rdx,%rax
  401f4f:	48 83 e0 fe          	and    $0xfffffffffffffffe,%rax
  401f53:	48 8d 1c c3          	lea    (%rbx,%rax,8),%rbx
  401f57:	48 39 c2             	cmp    %rax,%rdx
  401f5a:	74 03                	je     401f5f <_Z18memset64_optimizedPvmm+0x5f>
  401f5c:	48 89 2b             	mov    %rbp,(%rbx)
  401f5f:	48 83 c4 10          	add    $0x10,%rsp
  401f63:	5b                   	pop    %rbx
  401f64:	5d                   	pop    %rbp
  401f65:	41 5c                	pop    %r12
  401f67:	c3                   	retq   
  401f68:	0f 1f 84 00 00 00 00 	nopl   0x0(%rax,%rax,1)
  401f6f:	00 
  401f70:	49 89 d4             	mov    %rdx,%r12
  401f73:	48 89 df             	mov    %rbx,%rdi
  401f76:	48 c1 ea 03          	shr    $0x3,%rdx
  401f7a:	41 83 e4 07          	and    $0x7,%r12d
  401f7e:	e8 64 08 00 00       	callq  4027e7 <memset64_sse2>
  401f83:	4d 85 e4             	test   %r12,%r12
  401f86:	74 d7                	je     401f5f <_Z18memset64_optimizedPvmm+0x5f>
  401f88:	48 89 2b             	mov    %rbp,(%rbx)
  401f8b:	49 83 fc 01          	cmp    $0x1,%r12
  401f8f:	74 ce                	je     401f5f <_Z18memset64_optimizedPvmm+0x5f>
  401f91:	48 89 6b 08          	mov    %rbp,0x8(%rbx)
  401f95:	49 83 fc 02          	cmp    $0x2,%r12
  401f99:	74 c4                	je     401f5f <_Z18memset64_optimizedPvmm+0x5f>
  401f9b:	48 89 6b 10          	mov    %rbp,0x10(%rbx)
  401f9f:	49 83 fc 03          	cmp    $0x3,%r12
  401fa3:	74 ba                	je     401f5f <_Z18memset64_optimizedPvmm+0x5f>
  401fa5:	48 89 6b 18          	mov    %rbp,0x18(%rbx)
  401fa9:	49 83 fc 04          	cmp    $0x4,%r12
  401fad:	74 b0                	je     401f5f <_Z18memset64_optimizedPvmm+0x5f>
  401faf:	48 89 6b 20          	mov    %rbp,0x20(%rbx)
  401fb3:	49 83 fc 05          	cmp    $0x5,%r12
  401fb7:	74 a6                	je     401f5f <_Z18memset64_optimizedPvmm+0x5f>
  401fb9:	48 89 6b 28          	mov    %rbp,0x28(%rbx)
  401fbd:	49 83 fc 06          	cmp    $0x6,%r12
  401fc1:	74 9c                	je     401f5f <_Z18memset64_optimizedPvmm+0x5f>
  401fc3:	48 89 6b 30          	mov    %rbp,0x30(%rbx)
  401fc7:	48 83 c4 10          	add    $0x10,%rsp
  401fcb:	5b                   	pop    %rbx
  401fcc:	5d                   	pop    %rbp
  401fcd:	41 5c                	pop    %r12
  401fcf:	c3                   	retq   

0000000000401fd0 <_Z16memcpy_optimizedPvS_m>:
  401fd0:	48 89 f8             	mov    %rdi,%rax
  401fd3:	48 09 f0             	or     %rsi,%rax
  401fd6:	a8 0f                	test   $0xf,%al
  401fd8:	74 06                	je     401fe0 <_Z16memcpy_optimizedPvS_m+0x10>
  401fda:	e9 a2 8b 00 00       	jmpq   40ab81 <memcpy>
  401fdf:	90                   	nop
  401fe0:	41 55                	push   %r13
  401fe2:	49 89 d5             	mov    %rdx,%r13
  401fe5:	41 54                	push   %r12
  401fe7:	41 83 e5 0f          	and    $0xf,%r13d
  401feb:	49 89 f4             	mov    %rsi,%r12
  401fee:	55                   	push   %rbp
  401fef:	48 89 fd             	mov    %rdi,%rbp
  401ff2:	53                   	push   %rbx
  401ff3:	48 89 d3             	mov    %rdx,%rbx
  401ff6:	4c 29 eb             	sub    %r13,%rbx
  401ff9:	48 89 da             	mov    %rbx,%rdx
  401ffc:	48 83 ec 08          	sub    $0x8,%rsp
  402000:	48 c1 ea 04          	shr    $0x4,%rdx
  402004:	e8 47 07 00 00       	callq  402750 <memcpy_sse2>
  402009:	4d 85 ed             	test   %r13,%r13
  40200c:	75 12                	jne    402020 <_Z16memcpy_optimizedPvS_m+0x50>
  40200e:	48 83 c4 08          	add    $0x8,%rsp
  402012:	5b                   	pop    %rbx
  402013:	5d                   	pop    %rbp
  402014:	41 5c                	pop    %r12
  402016:	41 5d                	pop    %r13
  402018:	c3                   	retq   
  402019:	0f 1f 80 00 00 00 00 	nopl   0x0(%rax)
  402020:	48 83 c4 08          	add    $0x8,%rsp
  402024:	49 8d 34 1c          	lea    (%r12,%rbx,1),%rsi
  402028:	48 8d 7c 1d 00       	lea    0x0(%rbp,%rbx,1),%rdi
  40202d:	4c 89 ea             	mov    %r13,%rdx
  402030:	5b                   	pop    %rbx
  402031:	5d                   	pop    %rbp
  402032:	41 5c                	pop    %r12
  402034:	41 5d                	pop    %r13
  402036:	e9 46 8b 00 00       	jmpq   40ab81 <memcpy>
  40203b:	0f 1f 44 00 00       	nopl   0x0(%rax,%rax,1)

0000000000402040 <_Z24CreateFramebufferSurface6FBInfoPv>:
  402040:	53                   	push   %rbx
  402041:	48 89 fb             	mov    %rdi,%rbx
  402044:	bf 28 00 00 00       	mov    $0x28,%edi
  402049:	e8 dc a0 00 00       	callq  40c12a <malloc>
  40204e:	48 8b 54 24 10       	mov    0x10(%rsp),%rdx
  402053:	48 c7 00 00 00 00 00 	movq   $0x0,(%rax)
  40205a:	48 89 50 08          	mov    %rdx,0x8(%rax)
  40205e:	0f b7 54 24 18       	movzwl 0x18(%rsp),%edx
  402063:	48 89 58 18          	mov    %rbx,0x18(%rax)
  402067:	88 50 14             	mov    %dl,0x14(%rax)
  40206a:	8b 54 24 1a          	mov    0x1a(%rsp),%edx
  40206e:	89 50 10             	mov    %edx,0x10(%rax)
  402071:	5b                   	pop    %rbx
  402072:	c3                   	retq   
  402073:	66 66 2e 0f 1f 84 00 	data16 nopw %cs:0x0(%rax,%rax,1)
  40207a:	00 00 00 00 
  40207e:	66 90                	xchg   %ax,%ax

0000000000402080 <_Z5floord>:
  402080:	f2 0f 2c c0          	cvttsd2si %xmm0,%eax
  402084:	66 0f ef c9          	pxor   %xmm1,%xmm1
  402088:	31 d2                	xor    %edx,%edx
  40208a:	f2 0f 2a c8          	cvtsi2sd %eax,%xmm1
  40208e:	66 0f 2f c8          	comisd %xmm0,%xmm1
  402092:	0f 97 c2             	seta   %dl
  402095:	29 d0                	sub    %edx,%eax
  402097:	c3                   	retq   
  402098:	0f 1f 84 00 00 00 00 	nopl   0x0(%rax,%rax,1)
  40209f:	00 

00000000004020a0 <_Z8DrawRectiiiihhhP7Surface>:
  4020a0:	55                   	push   %rbp
  4020a1:	53                   	push   %rbx
  4020a2:	8b 44 24 18          	mov    0x18(%rsp),%eax
  4020a6:	4c 8b 54 24 20       	mov    0x20(%rsp),%r10
  4020ab:	85 ff                	test   %edi,%edi
  4020ad:	79 04                	jns    4020b3 <_Z8DrawRectiiiihhhP7Surface+0x13>
  4020af:	01 fa                	add    %edi,%edx
  4020b1:	31 ff                	xor    %edi,%edi
  4020b3:	85 f6                	test   %esi,%esi
  4020b5:	79 04                	jns    4020bb <_Z8DrawRectiiiihhhP7Surface+0x1b>
  4020b7:	01 f1                	add    %esi,%ecx
  4020b9:	31 f6                	xor    %esi,%esi
  4020bb:	45 0f b6 c0          	movzbl %r8b,%r8d
  4020bf:	0f b6 c0             	movzbl %al,%eax
  4020c2:	45 0f b6 c9          	movzbl %r9b,%r9d
  4020c6:	4d 8b 5a 18          	mov    0x18(%r10),%r11
  4020ca:	41 c1 e0 10          	shl    $0x10,%r8d
  4020ce:	41 c1 e1 08          	shl    $0x8,%r9d
  4020d2:	41 09 c0             	or     %eax,%r8d
  4020d5:	45 09 c8             	or     %r9d,%r8d
  4020d8:	41 81 c8 00 00 00 ff 	or     $0xff000000,%r8d
  4020df:	85 c9                	test   %ecx,%ecx
  4020e1:	7e 4f                	jle    402132 <_Z8DrawRectiiiihhhP7Surface+0x92>
  4020e3:	41 3b 72 0c          	cmp    0xc(%r10),%esi
  4020e7:	7d 49                	jge    402132 <_Z8DrawRectiiiihhhP7Surface+0x92>
  4020e9:	89 f3                	mov    %esi,%ebx
  4020eb:	8d 6c 0e ff          	lea    -0x1(%rsi,%rcx,1),%ebp
  4020ef:	8d 74 17 ff          	lea    -0x1(%rdi,%rdx,1),%esi
  4020f3:	0f 1f 44 00 00       	nopl   0x0(%rax,%rax,1)
  4020f8:	41 8b 42 08          	mov    0x8(%r10),%eax
  4020fc:	41 89 d9             	mov    %ebx,%r9d
  4020ff:	44 0f af c8          	imul   %eax,%r9d
  402103:	85 d2                	test   %edx,%edx
  402105:	7e 1e                	jle    402125 <_Z8DrawRectiiiihhhP7Surface+0x85>
  402107:	39 f8                	cmp    %edi,%eax
  402109:	7e 1a                	jle    402125 <_Z8DrawRectiiiihhhP7Surface+0x85>
  40210b:	89 f8                	mov    %edi,%eax
  40210d:	eb 0a                	jmp    402119 <_Z8DrawRectiiiihhhP7Surface+0x79>
  40210f:	90                   	nop
  402110:	83 c0 01             	add    $0x1,%eax
  402113:	41 39 42 08          	cmp    %eax,0x8(%r10)
  402117:	7e 0c                	jle    402125 <_Z8DrawRectiiiihhhP7Surface+0x85>
  402119:	41 8d 0c 01          	lea    (%r9,%rax,1),%ecx
  40211d:	45 89 04 8b          	mov    %r8d,(%r11,%rcx,4)
  402121:	39 f0                	cmp    %esi,%eax
  402123:	75 eb                	jne    402110 <_Z8DrawRectiiiihhhP7Surface+0x70>
  402125:	39 dd                	cmp    %ebx,%ebp
  402127:	74 09                	je     402132 <_Z8DrawRectiiiihhhP7Surface+0x92>
  402129:	83 c3 01             	add    $0x1,%ebx
  40212c:	41 39 5a 0c          	cmp    %ebx,0xc(%r10)
  402130:	7f c6                	jg     4020f8 <_Z8DrawRectiiiihhhP7Surface+0x58>
  402132:	5b                   	pop    %rbx
  402133:	5d                   	pop    %rbp
  402134:	c3                   	retq   
  402135:	66 66 2e 0f 1f 84 00 	data16 nopw %cs:0x0(%rax,%rax,1)
  40213c:	00 00 00 00 

0000000000402140 <_Z8DrawRectiiii10RGBAColourP7Surface>:
  402140:	44 89 c0             	mov    %r8d,%eax
  402143:	53                   	push   %rbx
  402144:	45 0f b6 c0          	movzbl %r8b,%r8d
  402148:	0f b6 dc             	movzbl %ah,%ebx
  40214b:	c1 e8 10             	shr    $0x10,%eax
  40214e:	41 51                	push   %r9
  402150:	0f b6 c0             	movzbl %al,%eax
  402153:	41 89 d9             	mov    %ebx,%r9d
  402156:	50                   	push   %rax
  402157:	e8 44 ff ff ff       	callq  4020a0 <_Z8DrawRectiiiihhhP7Surface>
  40215c:	58                   	pop    %rax
  40215d:	5a                   	pop    %rdx
  40215e:	5b                   	pop    %rbx
  40215f:	c3                   	retq   

0000000000402160 <_Z8DrawRect4Rect10RGBAColourP7Surface>:
  402160:	48 89 f8             	mov    %rdi,%rax
  402163:	49 89 c9             	mov    %rcx,%r9
  402166:	48 89 f1             	mov    %rsi,%rcx
  402169:	41 89 d0             	mov    %edx,%r8d
  40216c:	48 c1 f8 20          	sar    $0x20,%rax
  402170:	89 f2                	mov    %esi,%edx
  402172:	48 c1 f9 20          	sar    $0x20,%rcx
  402176:	89 c6                	mov    %eax,%esi
  402178:	e9 c3 ff ff ff       	jmpq   402140 <_Z8DrawRectiiii10RGBAColourP7Surface>
  40217d:	0f 1f 00             	nopl   (%rax)

0000000000402180 <_Z15DrawBitmapImageiiiiPhP7Surface>:
  402180:	41 57                	push   %r15
  402182:	66 0f ef c0          	pxor   %xmm0,%xmm0
  402186:	41 56                	push   %r14
  402188:	41 89 f6             	mov    %esi,%r14d
  40218b:	41 55                	push   %r13
  40218d:	41 89 d5             	mov    %edx,%r13d
  402190:	8d 14 52             	lea    (%rdx,%rdx,2),%edx
  402193:	41 54                	push   %r12
  402195:	c1 e2 03             	shl    $0x3,%edx
  402198:	41 89 fc             	mov    %edi,%r12d
  40219b:	55                   	push   %rbp
  40219c:	53                   	push   %rbx
  40219d:	4c 89 cb             	mov    %r9,%rbx
  4021a0:	48 83 ec 18          	sub    $0x18,%rsp
  4021a4:	41 8b 40 0a          	mov    0xa(%r8),%eax
  4021a8:	89 4c 24 08          	mov    %ecx,0x8(%rsp)
  4021ac:	4a 8d 2c 00          	lea    (%rax,%r8,1),%rbp
  4021b0:	8d 42 3e             	lea    0x3e(%rdx),%eax
  4021b3:	83 c2 1f             	add    $0x1f,%edx
  4021b6:	0f 49 c2             	cmovns %edx,%eax
  4021b9:	c1 f8 05             	sar    $0x5,%eax
  4021bc:	f2 0f 2a c0          	cvtsi2sd %eax,%xmm0
  4021c0:	e8 bb fe ff ff       	callq  402080 <_Z5floord>
  4021c5:	8b 4c 24 08          	mov    0x8(%rsp),%ecx
  4021c9:	44 8d 1c 85 00 00 00 	lea    0x0(,%rax,4),%r11d
  4021d0:	00 
  4021d1:	44 8d 79 ff          	lea    -0x1(%rcx),%r15d
  4021d5:	45 0f af fb          	imul   %r11d,%r15d
  4021d9:	85 c9                	test   %ecx,%ecx
  4021db:	0f 8e d9 00 00 00    	jle    4022ba <_Z15DrawBitmapImageiiiiPhP7Surface+0x13a>
  4021e1:	44 3b 73 0c          	cmp    0xc(%rbx),%r14d
  4021e5:	0f 8d cf 00 00 00    	jge    4022ba <_Z15DrawBitmapImageiiiiPhP7Surface+0x13a>
  4021eb:	41 8d 44 0e ff       	lea    -0x1(%r14,%rcx,1),%eax
  4021f0:	44 89 f6             	mov    %r14d,%esi
  4021f3:	47 8d 74 2c ff       	lea    -0x1(%r12,%r13,1),%r14d
  4021f8:	89 44 24 0c          	mov    %eax,0xc(%rsp)
  4021fc:	0f 1f 40 00          	nopl   0x0(%rax)
  402200:	45 85 ed             	test   %r13d,%r13d
  402203:	0f 8e 9c 00 00 00    	jle    4022a5 <_Z15DrawBitmapImageiiiiPhP7Surface+0x125>
  402209:	8b 43 08             	mov    0x8(%rbx),%eax
  40220c:	41 39 c4             	cmp    %eax,%r12d
  40220f:	0f 8d 90 00 00 00    	jge    4022a5 <_Z15DrawBitmapImageiiiiPhP7Surface+0x125>
  402215:	44 89 fa             	mov    %r15d,%edx
  402218:	44 89 e1             	mov    %r12d,%ecx
  40221b:	44 89 5c 24 08       	mov    %r11d,0x8(%rsp)
  402220:	eb 4e                	jmp    402270 <_Z15DrawBitmapImageiiiiPhP7Surface+0xf0>
  402222:	66 0f 1f 44 00 00    	nopw   0x0(%rax,%rax,1)
  402228:	0f af c6             	imul   %esi,%eax
  40222b:	4c 8b 5b 18          	mov    0x18(%rbx),%r11
  40222f:	01 c8                	add    %ecx,%eax
  402231:	44 8d 14 85 00 00 00 	lea    0x0(,%rax,4),%r10d
  402238:	00 
  402239:	47 88 0c 13          	mov    %r9b,(%r11,%r10,1)
  40223d:	4c 89 d0             	mov    %r10,%rax
  402240:	4c 8b 4b 18          	mov    0x18(%rbx),%r9
  402244:	44 0f b6 17          	movzbl (%rdi),%r10d
  402248:	8d 78 01             	lea    0x1(%rax),%edi
  40224b:	83 c0 02             	add    $0x2,%eax
  40224e:	45 88 14 39          	mov    %r10b,(%r9,%rdi,1)
  402252:	45 0f b6 00          	movzbl (%r8),%r8d
  402256:	48 8b 7b 18          	mov    0x18(%rbx),%rdi
  40225a:	44 88 04 07          	mov    %r8b,(%rdi,%rax,1)
  40225e:	44 39 f1             	cmp    %r14d,%ecx
  402261:	74 3d                	je     4022a0 <_Z15DrawBitmapImageiiiiPhP7Surface+0x120>
  402263:	8b 43 08             	mov    0x8(%rbx),%eax
  402266:	83 c1 01             	add    $0x1,%ecx
  402269:	83 c2 03             	add    $0x3,%edx
  40226c:	39 c8                	cmp    %ecx,%eax
  40226e:	7e 30                	jle    4022a0 <_Z15DrawBitmapImageiiiiPhP7Surface+0x120>
  402270:	89 d7                	mov    %edx,%edi
  402272:	44 8d 42 02          	lea    0x2(%rdx),%r8d
  402276:	44 0f b6 4c 3d 00    	movzbl 0x0(%rbp,%rdi,1),%r9d
  40227c:	8d 7a 01             	lea    0x1(%rdx),%edi
  40227f:	49 01 e8             	add    %rbp,%r8
  402282:	48 01 ef             	add    %rbp,%rdi
  402285:	41 80 f9 01          	cmp    $0x1,%r9b
  402289:	75 9d                	jne    402228 <_Z15DrawBitmapImageiiiiPhP7Surface+0xa8>
  40228b:	80 3f 01             	cmpb   $0x1,(%rdi)
  40228e:	75 98                	jne    402228 <_Z15DrawBitmapImageiiiiPhP7Surface+0xa8>
  402290:	41 80 38 01          	cmpb   $0x1,(%r8)
  402294:	75 92                	jne    402228 <_Z15DrawBitmapImageiiiiPhP7Surface+0xa8>
  402296:	44 39 f1             	cmp    %r14d,%ecx
  402299:	75 c8                	jne    402263 <_Z15DrawBitmapImageiiiiPhP7Surface+0xe3>
  40229b:	0f 1f 44 00 00       	nopl   0x0(%rax,%rax,1)
  4022a0:	44 8b 5c 24 08       	mov    0x8(%rsp),%r11d
  4022a5:	45 29 df             	sub    %r11d,%r15d
  4022a8:	39 74 24 0c          	cmp    %esi,0xc(%rsp)
  4022ac:	74 0c                	je     4022ba <_Z15DrawBitmapImageiiiiPhP7Surface+0x13a>
  4022ae:	83 c6 01             	add    $0x1,%esi
  4022b1:	39 73 0c             	cmp    %esi,0xc(%rbx)
  4022b4:	0f 8f 46 ff ff ff    	jg     402200 <_Z15DrawBitmapImageiiiiPhP7Surface+0x80>
  4022ba:	48 83 c4 18          	add    $0x18,%rsp
  4022be:	5b                   	pop    %rbx
  4022bf:	5d                   	pop    %rbp
  4022c0:	41 5c                	pop    %r12
  4022c2:	41 5d                	pop    %r13
  4022c4:	41 5e                	pop    %r14
  4022c6:	41 5f                	pop    %r15
  4022c8:	c3                   	retq   
  4022c9:	0f 1f 80 00 00 00 00 	nopl   0x0(%rax)

00000000004022d0 <_Z12DrawGradientiiii10RGBAColourS_P7Surface>:
  4022d0:	41 57                	push   %r15
  4022d2:	44 89 c0             	mov    %r8d,%eax
  4022d5:	41 56                	push   %r14
  4022d7:	41 55                	push   %r13
  4022d9:	41 89 cd             	mov    %ecx,%r13d
  4022dc:	44 89 c1             	mov    %r8d,%ecx
  4022df:	41 54                	push   %r12
  4022e1:	c1 e9 10             	shr    $0x10,%ecx
  4022e4:	41 89 f4             	mov    %esi,%r12d
  4022e7:	55                   	push   %rbp
  4022e8:	89 d5                	mov    %edx,%ebp
  4022ea:	0f b6 d4             	movzbl %ah,%edx
  4022ed:	53                   	push   %rbx
  4022ee:	48 83 ec 38          	sub    $0x38,%rsp
  4022f2:	48 8b 5c 24 70       	mov    0x70(%rsp),%rbx
  4022f7:	85 ff                	test   %edi,%edi
  4022f9:	79 04                	jns    4022ff <_Z12DrawGradientiiii10RGBAColourS_P7Surface+0x2f>
  4022fb:	01 fd                	add    %edi,%ebp
  4022fd:	31 ff                	xor    %edi,%edi
  4022ff:	45 85 e4             	test   %r12d,%r12d
  402302:	79 06                	jns    40230a <_Z12DrawGradientiiii10RGBAColourS_P7Surface+0x3a>
  402304:	45 01 e5             	add    %r12d,%r13d
  402307:	45 31 e4             	xor    %r12d,%r12d
  40230a:	85 ed                	test   %ebp,%ebp
  40230c:	0f 8e 1e 01 00 00    	jle    402430 <_Z12DrawGradientiiii10RGBAColourS_P7Surface+0x160>
  402312:	3b 7b 08             	cmp    0x8(%rbx),%edi
  402315:	0f 8d 15 01 00 00    	jge    402430 <_Z12DrawGradientiiii10RGBAColourS_P7Surface+0x160>
  40231b:	44 89 c8             	mov    %r9d,%eax
  40231e:	66 0f ef c0          	pxor   %xmm0,%xmm0
  402322:	0f b6 c9             	movzbl %cl,%ecx
  402325:	0f b6 d2             	movzbl %dl,%edx
  402328:	c1 e8 10             	shr    $0x10,%eax
  40232b:	66 0f ef f6          	pxor   %xmm6,%xmm6
  40232f:	66 0f ef c9          	pxor   %xmm1,%xmm1
  402333:	45 0f b6 c0          	movzbl %r8b,%r8d
  402337:	0f b6 c0             	movzbl %al,%eax
  40233a:	f2 0f 2a f1          	cvtsi2sd %ecx,%xmm6
  40233e:	66 0f ef ff          	pxor   %xmm7,%xmm7
  402342:	41 89 fe             	mov    %edi,%r14d
  402345:	f2 0f 2a c0          	cvtsi2sd %eax,%xmm0
  402349:	44 89 c8             	mov    %r9d,%eax
  40234c:	45 0f b6 c9          	movzbl %r9b,%r9d
  402350:	45 31 ff             	xor    %r15d,%r15d
  402353:	f2 0f 2a cd          	cvtsi2sd %ebp,%xmm1
  402357:	0f b6 c4             	movzbl %ah,%eax
  40235a:	f2 0f 2a fa          	cvtsi2sd %edx,%xmm7
  40235e:	f2 0f 11 74 24 18    	movsd  %xmm6,0x18(%rsp)
  402364:	f2 0f 5c c6          	subsd  %xmm6,%xmm0
  402368:	66 0f ef f6          	pxor   %xmm6,%xmm6
  40236c:	f2 41 0f 2a f0       	cvtsi2sd %r8d,%xmm6
  402371:	f2 0f 11 7c 24 20    	movsd  %xmm7,0x20(%rsp)
  402377:	f2 0f 5e c1          	divsd  %xmm1,%xmm0
  40237b:	f2 0f 11 74 24 28    	movsd  %xmm6,0x28(%rsp)
  402381:	f2 0f 11 04 24       	movsd  %xmm0,(%rsp)
  402386:	66 0f ef c0          	pxor   %xmm0,%xmm0
  40238a:	f2 0f 2a c0          	cvtsi2sd %eax,%xmm0
  40238e:	f2 0f 5c c7          	subsd  %xmm7,%xmm0
  402392:	f2 0f 5e c1          	divsd  %xmm1,%xmm0
  402396:	f2 0f 11 44 24 08    	movsd  %xmm0,0x8(%rsp)
  40239c:	66 0f ef c0          	pxor   %xmm0,%xmm0
  4023a0:	f2 41 0f 2a c1       	cvtsi2sd %r9d,%xmm0
  4023a5:	f2 0f 5c c6          	subsd  %xmm6,%xmm0
  4023a9:	f2 0f 5e c1          	divsd  %xmm1,%xmm0
  4023ad:	f2 0f 11 44 24 10    	movsd  %xmm0,0x10(%rsp)
  4023b3:	eb 0d                	jmp    4023c2 <_Z12DrawGradientiiii10RGBAColourS_P7Surface+0xf2>
  4023b5:	0f 1f 00             	nopl   (%rax)
  4023b8:	41 83 c6 01          	add    $0x1,%r14d
  4023bc:	44 39 73 08          	cmp    %r14d,0x8(%rbx)
  4023c0:	7e 6e                	jle    402430 <_Z12DrawGradientiiii10RGBAColourS_P7Surface+0x160>
  4023c2:	66 0f ef c0          	pxor   %xmm0,%xmm0
  4023c6:	f2 0f 10 4c 24 08    	movsd  0x8(%rsp),%xmm1
  4023cc:	44 89 e9             	mov    %r13d,%ecx
  4023cf:	44 89 e6             	mov    %r12d,%esi
  4023d2:	f2 41 0f 2a c7       	cvtsi2sd %r15d,%xmm0
  4023d7:	ba 01 00 00 00       	mov    $0x1,%edx
  4023dc:	44 89 f7             	mov    %r14d,%edi
  4023df:	41 83 c7 01          	add    $0x1,%r15d
  4023e3:	f2 0f 59 c8          	mulsd  %xmm0,%xmm1
  4023e7:	f2 0f 58 4c 24 20    	addsd  0x20(%rsp),%xmm1
  4023ed:	f2 44 0f 2c c9       	cvttsd2si %xmm1,%r9d
  4023f2:	f2 0f 10 4c 24 10    	movsd  0x10(%rsp),%xmm1
  4023f8:	f2 0f 59 c8          	mulsd  %xmm0,%xmm1
  4023fc:	f2 0f 58 4c 24 28    	addsd  0x28(%rsp),%xmm1
  402402:	53                   	push   %rbx
  402403:	f2 0f 59 44 24 08    	mulsd  0x8(%rsp),%xmm0
  402409:	45 0f b6 c9          	movzbl %r9b,%r9d
  40240d:	f2 0f 58 44 24 20    	addsd  0x20(%rsp),%xmm0
  402413:	f2 44 0f 2c c1       	cvttsd2si %xmm1,%r8d
  402418:	f2 0f 2c c0          	cvttsd2si %xmm0,%eax
  40241c:	45 0f b6 c0          	movzbl %r8b,%r8d
  402420:	0f b6 c0             	movzbl %al,%eax
  402423:	50                   	push   %rax
  402424:	e8 77 fc ff ff       	callq  4020a0 <_Z8DrawRectiiiihhhP7Surface>
  402429:	58                   	pop    %rax
  40242a:	5a                   	pop    %rdx
  40242b:	44 39 fd             	cmp    %r15d,%ebp
  40242e:	75 88                	jne    4023b8 <_Z12DrawGradientiiii10RGBAColourS_P7Surface+0xe8>
  402430:	48 83 c4 38          	add    $0x38,%rsp
  402434:	5b                   	pop    %rbx
  402435:	5d                   	pop    %rbp
  402436:	41 5c                	pop    %r12
  402438:	41 5d                	pop    %r13
  40243a:	41 5e                	pop    %r14
  40243c:	41 5f                	pop    %r15
  40243e:	c3                   	retq   
  40243f:	90                   	nop

0000000000402440 <_Z20DrawGradientVerticaliiii10RGBAColourS_P7Surface>:
  402440:	41 57                	push   %r15
  402442:	44 89 c0             	mov    %r8d,%eax
  402445:	41 56                	push   %r14
  402447:	41 55                	push   %r13
  402449:	41 89 d5             	mov    %edx,%r13d
  40244c:	0f b6 d4             	movzbl %ah,%edx
  40244f:	41 54                	push   %r12
  402451:	41 89 fc             	mov    %edi,%r12d
  402454:	55                   	push   %rbp
  402455:	89 cd                	mov    %ecx,%ebp
  402457:	44 89 c1             	mov    %r8d,%ecx
  40245a:	53                   	push   %rbx
  40245b:	c1 e9 10             	shr    $0x10,%ecx
  40245e:	48 83 ec 38          	sub    $0x38,%rsp
  402462:	48 8b 5c 24 70       	mov    0x70(%rsp),%rbx
  402467:	85 ff                	test   %edi,%edi
  402469:	79 06                	jns    402471 <_Z20DrawGradientVerticaliiii10RGBAColourS_P7Surface+0x31>
  40246b:	41 01 fd             	add    %edi,%r13d
  40246e:	45 31 e4             	xor    %r12d,%r12d
  402471:	85 f6                	test   %esi,%esi
  402473:	79 04                	jns    402479 <_Z20DrawGradientVerticaliiii10RGBAColourS_P7Surface+0x39>
  402475:	01 f5                	add    %esi,%ebp
  402477:	31 f6                	xor    %esi,%esi
  402479:	85 ed                	test   %ebp,%ebp
  40247b:	0f 8e 1f 01 00 00    	jle    4025a0 <_Z20DrawGradientVerticaliiii10RGBAColourS_P7Surface+0x160>
  402481:	3b 73 0c             	cmp    0xc(%rbx),%esi
  402484:	0f 8d 16 01 00 00    	jge    4025a0 <_Z20DrawGradientVerticaliiii10RGBAColourS_P7Surface+0x160>
  40248a:	44 89 c8             	mov    %r9d,%eax
  40248d:	66 0f ef c0          	pxor   %xmm0,%xmm0
  402491:	0f b6 c9             	movzbl %cl,%ecx
  402494:	0f b6 d2             	movzbl %dl,%edx
  402497:	c1 e8 10             	shr    $0x10,%eax
  40249a:	66 0f ef f6          	pxor   %xmm6,%xmm6
  40249e:	66 0f ef c9          	pxor   %xmm1,%xmm1
  4024a2:	45 0f b6 c0          	movzbl %r8b,%r8d
  4024a6:	0f b6 c0             	movzbl %al,%eax
  4024a9:	f2 0f 2a f1          	cvtsi2sd %ecx,%xmm6
  4024ad:	66 0f ef ff          	pxor   %xmm7,%xmm7
  4024b1:	41 89 f6             	mov    %esi,%r14d
  4024b4:	f2 0f 2a c0          	cvtsi2sd %eax,%xmm0
  4024b8:	44 89 c8             	mov    %r9d,%eax
  4024bb:	45 0f b6 c9          	movzbl %r9b,%r9d
  4024bf:	45 31 ff             	xor    %r15d,%r15d
  4024c2:	f2 0f 2a cd          	cvtsi2sd %ebp,%xmm1
  4024c6:	0f b6 c4             	movzbl %ah,%eax
  4024c9:	f2 0f 2a fa          	cvtsi2sd %edx,%xmm7
  4024cd:	f2 0f 11 74 24 18    	movsd  %xmm6,0x18(%rsp)
  4024d3:	f2 0f 5c c6          	subsd  %xmm6,%xmm0
  4024d7:	66 0f ef f6          	pxor   %xmm6,%xmm6
  4024db:	f2 41 0f 2a f0       	cvtsi2sd %r8d,%xmm6
  4024e0:	f2 0f 11 7c 24 20    	movsd  %xmm7,0x20(%rsp)
  4024e6:	f2 0f 5e c1          	divsd  %xmm1,%xmm0
  4024ea:	f2 0f 11 74 24 28    	movsd  %xmm6,0x28(%rsp)
  4024f0:	f2 0f 11 04 24       	movsd  %xmm0,(%rsp)
  4024f5:	66 0f ef c0          	pxor   %xmm0,%xmm0
  4024f9:	f2 0f 2a c0          	cvtsi2sd %eax,%xmm0
  4024fd:	f2 0f 5c c7          	subsd  %xmm7,%xmm0
  402501:	f2 0f 5e c1          	divsd  %xmm1,%xmm0
  402505:	f2 0f 11 44 24 08    	movsd  %xmm0,0x8(%rsp)
  40250b:	66 0f ef c0          	pxor   %xmm0,%xmm0
  40250f:	f2 41 0f 2a c1       	cvtsi2sd %r9d,%xmm0
  402514:	f2 0f 5c c6          	subsd  %xmm6,%xmm0
  402518:	f2 0f 5e c1          	divsd  %xmm1,%xmm0
  40251c:	f2 0f 11 44 24 10    	movsd  %xmm0,0x10(%rsp)
  402522:	eb 0e                	jmp    402532 <_Z20DrawGradientVerticaliiii10RGBAColourS_P7Surface+0xf2>
  402524:	0f 1f 40 00          	nopl   0x0(%rax)
  402528:	41 83 c6 01          	add    $0x1,%r14d
  40252c:	44 39 73 0c          	cmp    %r14d,0xc(%rbx)
  402530:	7e 6e                	jle    4025a0 <_Z20DrawGradientVerticaliiii10RGBAColourS_P7Surface+0x160>
  402532:	66 0f ef c0          	pxor   %xmm0,%xmm0
  402536:	f2 0f 10 4c 24 08    	movsd  0x8(%rsp),%xmm1
  40253c:	44 89 ea             	mov    %r13d,%edx
  40253f:	44 89 f6             	mov    %r14d,%esi
  402542:	f2 41 0f 2a c7       	cvtsi2sd %r15d,%xmm0
  402547:	b9 01 00 00 00       	mov    $0x1,%ecx
  40254c:	44 89 e7             	mov    %r12d,%edi
  40254f:	41 83 c7 01          	add    $0x1,%r15d
  402553:	f2 0f 59 c8          	mulsd  %xmm0,%xmm1
  402557:	f2 0f 58 4c 24 20    	addsd  0x20(%rsp),%xmm1
  40255d:	f2 44 0f 2c c9       	cvttsd2si %xmm1,%r9d
  402562:	f2 0f 10 4c 24 10    	movsd  0x10(%rsp),%xmm1
  402568:	f2 0f 59 c8          	mulsd  %xmm0,%xmm1
  40256c:	f2 0f 58 4c 24 28    	addsd  0x28(%rsp),%xmm1
  402572:	53                   	push   %rbx
  402573:	f2 0f 59 44 24 08    	mulsd  0x8(%rsp),%xmm0
  402579:	45 0f b6 c9          	movzbl %r9b,%r9d
  40257d:	f2 0f 58 44 24 20    	addsd  0x20(%rsp),%xmm0
  402583:	f2 44 0f 2c c1       	cvttsd2si %xmm1,%r8d
  402588:	f2 0f 2c c0          	cvttsd2si %xmm0,%eax
  40258c:	45 0f b6 c0          	movzbl %r8b,%r8d
  402590:	0f b6 c0             	movzbl %al,%eax
  402593:	50                   	push   %rax
  402594:	e8 07 fb ff ff       	callq  4020a0 <_Z8DrawRectiiiihhhP7Surface>
  402599:	58                   	pop    %rax
  40259a:	5a                   	pop    %rdx
  40259b:	44 39 fd             	cmp    %r15d,%ebp
  40259e:	75 88                	jne    402528 <_Z20DrawGradientVerticaliiii10RGBAColourS_P7Surface+0xe8>
  4025a0:	48 83 c4 38          	add    $0x38,%rsp
  4025a4:	5b                   	pop    %rbx
  4025a5:	5d                   	pop    %rbp
  4025a6:	41 5c                	pop    %r12
  4025a8:	41 5d                	pop    %r13
  4025aa:	41 5e                	pop    %r14
  4025ac:	41 5f                	pop    %r15
  4025ae:	c3                   	retq   
  4025af:	90                   	nop

00000000004025b0 <_Z20DrawGradientVertical4Rect10RGBAColourS0_P7Surface>:
  4025b0:	48 83 ec 10          	sub    $0x10,%rsp
  4025b4:	48 89 f8             	mov    %rdi,%rax
  4025b7:	41 89 c9             	mov    %ecx,%r9d
  4025ba:	48 89 f1             	mov    %rsi,%rcx
  4025bd:	41 50                	push   %r8
  4025bf:	48 c1 f8 20          	sar    $0x20,%rax
  4025c3:	41 89 d0             	mov    %edx,%r8d
  4025c6:	48 c1 f9 20          	sar    $0x20,%rcx
  4025ca:	89 f2                	mov    %esi,%edx
  4025cc:	89 c6                	mov    %eax,%esi
  4025ce:	e8 6d fe ff ff       	callq  402440 <_Z20DrawGradientVerticaliiii10RGBAColourS_P7Surface>
  4025d3:	48 83 c4 18          	add    $0x18,%rsp
  4025d7:	c3                   	retq   
  4025d8:	0f 1f 84 00 00 00 00 	nopl   0x0(%rax,%rax,1)
  4025df:	00 

00000000004025e0 <_Z10surfacecpyP7SurfaceS0_8Vector2i>:
  4025e0:	41 56                	push   %r14
  4025e2:	41 89 d6             	mov    %edx,%r14d
  4025e5:	48 c1 fa 20          	sar    $0x20,%rdx
  4025e9:	41 55                	push   %r13
  4025eb:	41 54                	push   %r12
  4025ed:	55                   	push   %rbp
  4025ee:	53                   	push   %rbx
  4025ef:	8b 46 0c             	mov    0xc(%rsi),%eax
  4025f2:	85 c0                	test   %eax,%eax
  4025f4:	7e 75                	jle    40266b <_Z10surfacecpyP7SurfaceS0_8Vector2i+0x8b>
  4025f6:	8b 47 0c             	mov    0xc(%rdi),%eax
  4025f9:	29 d0                	sub    %edx,%eax
  4025fb:	85 c0                	test   %eax,%eax
  4025fd:	7e 6c                	jle    40266b <_Z10surfacecpyP7SurfaceS0_8Vector2i+0x8b>
  4025ff:	89 d3                	mov    %edx,%ebx
  402601:	49 89 f4             	mov    %rsi,%r12
  402604:	49 89 fd             	mov    %rdi,%r13
  402607:	31 ed                	xor    %ebp,%ebp
  402609:	eb 0f                	jmp    40261a <_Z10surfacecpyP7SurfaceS0_8Vector2i+0x3a>
  40260b:	0f 1f 44 00 00       	nopl   0x0(%rax,%rax,1)
  402610:	41 8b 45 0c          	mov    0xc(%r13),%eax
  402614:	29 d8                	sub    %ebx,%eax
  402616:	39 e8                	cmp    %ebp,%eax
  402618:	7e 51                	jle    40266b <_Z10surfacecpyP7SurfaceS0_8Vector2i+0x8b>
  40261a:	41 8b 44 24 08       	mov    0x8(%r12),%eax
  40261f:	41 8b 4d 08          	mov    0x8(%r13),%ecx
  402623:	8d 3c 2b             	lea    (%rbx,%rbp,1),%edi
  402626:	42 8d 34 30          	lea    (%rax,%r14,1),%esi
  40262a:	89 ca                	mov    %ecx,%edx
  40262c:	44 29 f2             	sub    %r14d,%edx
  40262f:	39 ce                	cmp    %ecx,%esi
  402631:	0f 4e d0             	cmovle %eax,%edx
  402634:	0f af f9             	imul   %ecx,%edi
  402637:	0f af c5             	imul   %ebp,%eax
  40263a:	83 c5 01             	add    $0x1,%ebp
  40263d:	c1 e2 02             	shl    $0x2,%edx
  402640:	44 01 f7             	add    %r14d,%edi
  402643:	48 63 d2             	movslq %edx,%rdx
  402646:	8d 34 85 00 00 00 00 	lea    0x0(,%rax,4),%esi
  40264d:	c1 e7 02             	shl    $0x2,%edi
  402650:	48 63 f6             	movslq %esi,%rsi
  402653:	48 63 ff             	movslq %edi,%rdi
  402656:	49 03 74 24 18       	add    0x18(%r12),%rsi
  40265b:	49 03 7d 18          	add    0x18(%r13),%rdi
  40265f:	e8 6c f9 ff ff       	callq  401fd0 <_Z16memcpy_optimizedPvS_m>
  402664:	41 39 6c 24 0c       	cmp    %ebp,0xc(%r12)
  402669:	7f a5                	jg     402610 <_Z10surfacecpyP7SurfaceS0_8Vector2i+0x30>
  40266b:	5b                   	pop    %rbx
  40266c:	5d                   	pop    %rbp
  40266d:	41 5c                	pop    %r12
  40266f:	41 5d                	pop    %r13
  402671:	41 5e                	pop    %r14
  402673:	c3                   	retq   
  402674:	66 66 2e 0f 1f 84 00 	data16 nopw %cs:0x0(%rax,%rax,1)
  40267b:	00 00 00 00 
  40267f:	90                   	nop

0000000000402680 <_Z21surfacecpyTransparentP7SurfaceS0_8Vector2i>:
  402680:	8b 4e 0c             	mov    0xc(%rsi),%ecx
  402683:	41 89 d0             	mov    %edx,%r8d
  402686:	41 55                	push   %r13
  402688:	48 c1 fa 20          	sar    $0x20,%rdx
  40268c:	41 54                	push   %r12
  40268e:	4c 8b 56 18          	mov    0x18(%rsi),%r10
  402692:	55                   	push   %rbp
  402693:	53                   	push   %rbx
  402694:	48 8b 5f 18          	mov    0x18(%rdi),%rbx
  402698:	85 c9                	test   %ecx,%ecx
  40269a:	0f 8e 9c 00 00 00    	jle    40273c <_Z21surfacecpyTransparentP7SurfaceS0_8Vector2i+0xbc>
  4026a0:	8b 47 0c             	mov    0xc(%rdi),%eax
  4026a3:	29 d0                	sub    %edx,%eax
  4026a5:	85 c0                	test   %eax,%eax
  4026a7:	0f 8e 8f 00 00 00    	jle    40273c <_Z21surfacecpyTransparentP7SurfaceS0_8Vector2i+0xbc>
  4026ad:	44 8b 66 08          	mov    0x8(%rsi),%r12d
  4026b1:	89 d5                	mov    %edx,%ebp
  4026b3:	45 31 c9             	xor    %r9d,%r9d
  4026b6:	66 2e 0f 1f 84 00 00 	nopw   %cs:0x0(%rax,%rax,1)
  4026bd:	00 00 00 
  4026c0:	45 85 e4             	test   %r12d,%r12d
  4026c3:	7e 64                	jle    402729 <_Z21surfacecpyTransparentP7SurfaceS0_8Vector2i+0xa9>
  4026c5:	8b 47 08             	mov    0x8(%rdi),%eax
  4026c8:	89 c2                	mov    %eax,%edx
  4026ca:	44 29 c2             	sub    %r8d,%edx
  4026cd:	85 d2                	test   %edx,%edx
  4026cf:	7e 58                	jle    402729 <_Z21surfacecpyTransparentP7SurfaceS0_8Vector2i+0xa9>
  4026d1:	31 c9                	xor    %ecx,%ecx
  4026d3:	45 8d 1c 29          	lea    (%r9,%rbp,1),%r11d
  4026d7:	eb 13                	jmp    4026ec <_Z21surfacecpyTransparentP7SurfaceS0_8Vector2i+0x6c>
  4026d9:	0f 1f 80 00 00 00 00 	nopl   0x0(%rax)
  4026e0:	8b 47 08             	mov    0x8(%rdi),%eax
  4026e3:	89 c2                	mov    %eax,%edx
  4026e5:	44 29 c2             	sub    %r8d,%edx
  4026e8:	39 ca                	cmp    %ecx,%edx
  4026ea:	7e 3a                	jle    402726 <_Z21surfacecpyTransparentP7SurfaceS0_8Vector2i+0xa6>
  4026ec:	44 89 e2             	mov    %r12d,%edx
  4026ef:	41 0f af d1          	imul   %r9d,%edx
  4026f3:	01 ca                	add    %ecx,%edx
  4026f5:	48 63 d2             	movslq %edx,%rdx
  4026f8:	41 8b 14 92          	mov    (%r10,%rdx,4),%edx
  4026fc:	41 89 d5             	mov    %edx,%r13d
  4026ff:	41 c1 ed 18          	shr    $0x18,%r13d
  402703:	41 81 fd ff 00 00 00 	cmp    $0xff,%r13d
  40270a:	75 12                	jne    40271e <_Z21surfacecpyTransparentP7SurfaceS0_8Vector2i+0x9e>
  40270c:	41 0f af c3          	imul   %r11d,%eax
  402710:	01 c8                	add    %ecx,%eax
  402712:	44 01 c0             	add    %r8d,%eax
  402715:	48 98                	cltq   
  402717:	89 14 83             	mov    %edx,(%rbx,%rax,4)
  40271a:	44 8b 66 08          	mov    0x8(%rsi),%r12d
  40271e:	83 c1 01             	add    $0x1,%ecx
  402721:	44 39 e1             	cmp    %r12d,%ecx
  402724:	7c ba                	jl     4026e0 <_Z21surfacecpyTransparentP7SurfaceS0_8Vector2i+0x60>
  402726:	8b 4e 0c             	mov    0xc(%rsi),%ecx
  402729:	41 83 c1 01          	add    $0x1,%r9d
  40272d:	41 39 c9             	cmp    %ecx,%r9d
  402730:	7d 0a                	jge    40273c <_Z21surfacecpyTransparentP7SurfaceS0_8Vector2i+0xbc>
  402732:	8b 47 0c             	mov    0xc(%rdi),%eax
  402735:	29 e8                	sub    %ebp,%eax
  402737:	44 39 c8             	cmp    %r9d,%eax
  40273a:	7f 84                	jg     4026c0 <_Z21surfacecpyTransparentP7SurfaceS0_8Vector2i+0x40>
  40273c:	5b                   	pop    %rbx
  40273d:	5d                   	pop    %rbp
  40273e:	41 5c                	pop    %r12
  402740:	41 5d                	pop    %r13
  402742:	c3                   	retq   
  402743:	66 2e 0f 1f 84 00 00 	nopw   %cs:0x0(%rax,%rax,1)
  40274a:	00 00 00 
  40274d:	0f 1f 00             	nopl   (%rax)

0000000000402750 <memcpy_sse2>:
  402750:	55                   	push   %rbp
  402751:	48 89 e5             	mov    %rsp,%rbp
  402754:	48 89 f8             	mov    %rdi,%rax
  402757:	48 89 f3             	mov    %rsi,%rbx
  40275a:	48 89 d1             	mov    %rdx,%rcx

000000000040275d <memcpy_sse2.loop>:
  40275d:	66 0f 6f 03          	movdqa (%rbx),%xmm0
  402761:	66 0f 7f 00          	movdqa %xmm0,(%rax)
  402765:	48 83 c0 10          	add    $0x10,%rax
  402769:	48 83 c3 10          	add    $0x10,%rbx
  40276d:	e2 ee                	loop   40275d <memcpy_sse2.loop>
  40276f:	48 89 ec             	mov    %rbp,%rsp
  402772:	5d                   	pop    %rbp
  402773:	c3                   	retq   

0000000000402774 <memcpy_sse2_unaligned>:
  402774:	55                   	push   %rbp
  402775:	48 89 e5             	mov    %rsp,%rbp
  402778:	48 89 f8             	mov    %rdi,%rax
  40277b:	48 89 f3             	mov    %rsi,%rbx
  40277e:	48 89 d1             	mov    %rdx,%rcx

0000000000402781 <memcpy_sse2_unaligned.loop>:
  402781:	f3 0f 6f 03          	movdqu (%rbx),%xmm0
  402785:	f3 0f 7f 00          	movdqu %xmm0,(%rax)
  402789:	48 83 c0 10          	add    $0x10,%rax
  40278d:	48 83 c3 10          	add    $0x10,%rbx
  402791:	e2 ee                	loop   402781 <memcpy_sse2_unaligned.loop>
  402793:	48 89 ec             	mov    %rbp,%rsp
  402796:	5d                   	pop    %rbp
  402797:	c3                   	retq   

0000000000402798 <memset32_sse2>:
  402798:	55                   	push   %rbp
  402799:	48 89 e5             	mov    %rsp,%rbp
  40279c:	48 89 c8             	mov    %rcx,%rax
  40279f:	48 89 d3             	mov    %rdx,%rbx
  4027a2:	4c 89 c1             	mov    %r8,%rcx
  4027a5:	48 83 f9 01          	cmp    $0x1,%rcx
  4027a9:	7e 37                	jle    4027e2 <memset32_sse2.ret>
  4027ab:	66 48 0f 6e cb       	movq   %rbx,%xmm1
  4027b0:	66 0f 6f 04 25 30 28 	movdqa 0x402830,%xmm0
  4027b7:	40 00 
  4027b9:	66 0f d4 c1          	paddq  %xmm1,%xmm0
  4027bd:	66 0f 73 f8 04       	pslldq $0x4,%xmm0
  4027c2:	66 0f d4 c1          	paddq  %xmm1,%xmm0
  4027c6:	66 0f 73 f8 04       	pslldq $0x4,%xmm0
  4027cb:	66 0f d4 c1          	paddq  %xmm1,%xmm0
  4027cf:	66 0f 73 f8 04       	pslldq $0x4,%xmm0
  4027d4:	66 0f d4 c1          	paddq  %xmm1,%xmm0

00000000004027d8 <memset32_sse2.loop>:
  4027d8:	66 0f 7f 00          	movdqa %xmm0,(%rax)
  4027dc:	48 83 c0 10          	add    $0x10,%rax
  4027e0:	e2 f6                	loop   4027d8 <memset32_sse2.loop>

00000000004027e2 <memset32_sse2.ret>:
  4027e2:	48 89 ec             	mov    %rbp,%rsp
  4027e5:	5d                   	pop    %rbp
  4027e6:	c3                   	retq   

00000000004027e7 <memset64_sse2>:
  4027e7:	55                   	push   %rbp
  4027e8:	48 89 e5             	mov    %rsp,%rbp
  4027eb:	48 89 c8             	mov    %rcx,%rax
  4027ee:	48 89 d3             	mov    %rdx,%rbx
  4027f1:	4c 89 c1             	mov    %r8,%rcx
  4027f4:	48 83 f9 01          	cmp    $0x1,%rcx
  4027f8:	7e 25                	jle    40281f <memset64_sse2.ret>
  4027fa:	66 48 0f 6e cb       	movq   %rbx,%xmm1
  4027ff:	66 0f 6f 04 25 30 28 	movdqa 0x402830,%xmm0
  402806:	40 00 
  402808:	66 0f d4 c1          	paddq  %xmm1,%xmm0
  40280c:	66 0f 73 f8 08       	pslldq $0x8,%xmm0
  402811:	66 0f d4 c1          	paddq  %xmm1,%xmm0

0000000000402815 <memset64_sse2.loop>:
  402815:	66 0f 7f 00          	movdqa %xmm0,(%rax)
  402819:	48 83 c0 10          	add    $0x10,%rax
  40281d:	e2 f6                	loop   402815 <memset64_sse2.loop>

000000000040281f <memset64_sse2.ret>:
  40281f:	48 89 ec             	mov    %rbp,%rsp
  402822:	5d                   	pop    %rbp
  402823:	c3                   	retq   
  402824:	90                   	nop
  402825:	90                   	nop
  402826:	90                   	nop
  402827:	90                   	nop
  402828:	90                   	nop
  402829:	90                   	nop
  40282a:	90                   	nop
  40282b:	90                   	nop
  40282c:	90                   	nop
  40282d:	90                   	nop
  40282e:	90                   	nop
  40282f:	90                   	nop

0000000000402830 <bigzero>:
	...

0000000000402840 <_Z8DrawCharciihhhP7Surface>:
  402840:	41 57                	push   %r15
  402842:	8d 42 0c             	lea    0xc(%rdx),%eax
  402845:	83 e7 7f             	and    $0x7f,%edi
  402848:	41 89 f7             	mov    %esi,%r15d
  40284b:	41 56                	push   %r14
  40284d:	41 55                	push   %r13
  40284f:	45 89 cd             	mov    %r9d,%r13d
  402852:	41 54                	push   %r12
  402854:	55                   	push   %rbp
  402855:	89 d5                	mov    %edx,%ebp
  402857:	53                   	push   %rbx
  402858:	48 83 ec 18          	sub    $0x18,%rsp
  40285c:	48 c7 c3 c0 46 43 00 	mov    $0x4346c0,%rbx
  402863:	89 44 24 0c          	mov    %eax,0xc(%rsp)
  402867:	41 0f b6 c0          	movzbl %r8b,%eax
  40286b:	4c 8b 74 24 50       	mov    0x50(%rsp),%r14
  402870:	88 4c 24 07          	mov    %cl,0x7(%rsp)
  402874:	48 01 fb             	add    %rdi,%rbx
  402877:	89 44 24 08          	mov    %eax,0x8(%rsp)
  40287b:	eb 5a                	jmp    4028d7 <_Z8DrawCharciihhhP7Surface+0x97>
  40287d:	0f 1f 00             	nopl   (%rax)
  402880:	41 f6 c4 40          	test   $0x40,%r12b
  402884:	0f 85 89 00 00 00    	jne    402913 <_Z8DrawCharciihhhP7Surface+0xd3>
  40288a:	41 f6 c4 20          	test   $0x20,%r12b
  40288e:	0f 85 b2 00 00 00    	jne    402946 <_Z8DrawCharciihhhP7Surface+0x106>
  402894:	41 f6 c4 10          	test   $0x10,%r12b
  402898:	0f 85 db 00 00 00    	jne    402979 <_Z8DrawCharciihhhP7Surface+0x139>
  40289e:	41 f6 c4 08          	test   $0x8,%r12b
  4028a2:	0f 85 05 01 00 00    	jne    4029ad <_Z8DrawCharciihhhP7Surface+0x16d>
  4028a8:	41 f6 c4 04          	test   $0x4,%r12b
  4028ac:	0f 85 30 01 00 00    	jne    4029e2 <_Z8DrawCharciihhhP7Surface+0x1a2>
  4028b2:	41 f6 c4 02          	test   $0x2,%r12b
  4028b6:	0f 85 5a 01 00 00    	jne    402a16 <_Z8DrawCharciihhhP7Surface+0x1d6>
  4028bc:	41 83 e4 01          	and    $0x1,%r12d
  4028c0:	0f 85 83 01 00 00    	jne    402a49 <_Z8DrawCharciihhhP7Surface+0x209>
  4028c6:	48 83 eb 80          	sub    $0xffffffffffffff80,%rbx
  4028ca:	83 c5 01             	add    $0x1,%ebp
  4028cd:	39 6c 24 0c          	cmp    %ebp,0xc(%rsp)
  4028d1:	0f 84 ac 01 00 00    	je     402a83 <_Z8DrawCharciihhhP7Surface+0x243>
  4028d7:	44 0f b6 23          	movzbl (%rbx),%r12d
  4028db:	45 84 e4             	test   %r12b,%r12b
  4028de:	79 a0                	jns    402880 <_Z8DrawCharciihhhP7Surface+0x40>
  4028e0:	41 0f b6 d5          	movzbl %r13b,%edx
  4028e4:	41 56                	push   %r14
  4028e6:	44 89 ff             	mov    %r15d,%edi
  4028e9:	b9 01 00 00 00       	mov    $0x1,%ecx
  4028ee:	52                   	push   %rdx
  4028ef:	44 8b 4c 24 18       	mov    0x18(%rsp),%r9d
  4028f4:	ba 01 00 00 00       	mov    $0x1,%edx
  4028f9:	89 ee                	mov    %ebp,%esi
  4028fb:	44 0f b6 44 24 17    	movzbl 0x17(%rsp),%r8d
  402901:	e8 9a f7 ff ff       	callq  4020a0 <_Z8DrawRectiiiihhhP7Surface>
  402906:	5f                   	pop    %rdi
  402907:	41 58                	pop    %r8
  402909:	41 f6 c4 40          	test   $0x40,%r12b
  40290d:	0f 84 77 ff ff ff    	je     40288a <_Z8DrawCharciihhhP7Surface+0x4a>
  402913:	41 0f b6 d5          	movzbl %r13b,%edx
  402917:	41 56                	push   %r14
  402919:	b9 01 00 00 00       	mov    $0x1,%ecx
  40291e:	89 ee                	mov    %ebp,%esi
  402920:	52                   	push   %rdx
  402921:	44 8b 4c 24 18       	mov    0x18(%rsp),%r9d
  402926:	41 8d 7f 01          	lea    0x1(%r15),%edi
  40292a:	ba 01 00 00 00       	mov    $0x1,%edx
  40292f:	44 0f b6 44 24 17    	movzbl 0x17(%rsp),%r8d
  402935:	e8 66 f7 ff ff       	callq  4020a0 <_Z8DrawRectiiiihhhP7Surface>
  40293a:	59                   	pop    %rcx
  40293b:	5e                   	pop    %rsi
  40293c:	41 f6 c4 20          	test   $0x20,%r12b
  402940:	0f 84 4e ff ff ff    	je     402894 <_Z8DrawCharciihhhP7Surface+0x54>
  402946:	41 0f b6 d5          	movzbl %r13b,%edx
  40294a:	41 56                	push   %r14
  40294c:	41 8d 7f 02          	lea    0x2(%r15),%edi
  402950:	b9 01 00 00 00       	mov    $0x1,%ecx
  402955:	52                   	push   %rdx
  402956:	44 8b 4c 24 18       	mov    0x18(%rsp),%r9d
  40295b:	ba 01 00 00 00       	mov    $0x1,%edx
  402960:	89 ee                	mov    %ebp,%esi
  402962:	44 0f b6 44 24 17    	movzbl 0x17(%rsp),%r8d
  402968:	e8 33 f7 ff ff       	callq  4020a0 <_Z8DrawRectiiiihhhP7Surface>
  40296d:	58                   	pop    %rax
  40296e:	5a                   	pop    %rdx
  40296f:	41 f6 c4 10          	test   $0x10,%r12b
  402973:	0f 84 25 ff ff ff    	je     40289e <_Z8DrawCharciihhhP7Surface+0x5e>
  402979:	41 0f b6 d5          	movzbl %r13b,%edx
  40297d:	41 56                	push   %r14
  40297f:	41 8d 7f 03          	lea    0x3(%r15),%edi
  402983:	b9 01 00 00 00       	mov    $0x1,%ecx
  402988:	52                   	push   %rdx
  402989:	44 8b 4c 24 18       	mov    0x18(%rsp),%r9d
  40298e:	ba 01 00 00 00       	mov    $0x1,%edx
  402993:	89 ee                	mov    %ebp,%esi
  402995:	44 0f b6 44 24 17    	movzbl 0x17(%rsp),%r8d
  40299b:	e8 00 f7 ff ff       	callq  4020a0 <_Z8DrawRectiiiihhhP7Surface>
  4029a0:	41 5b                	pop    %r11
  4029a2:	58                   	pop    %rax
  4029a3:	41 f6 c4 08          	test   $0x8,%r12b
  4029a7:	0f 84 fb fe ff ff    	je     4028a8 <_Z8DrawCharciihhhP7Surface+0x68>
  4029ad:	41 0f b6 d5          	movzbl %r13b,%edx
  4029b1:	41 56                	push   %r14
  4029b3:	41 8d 7f 04          	lea    0x4(%r15),%edi
  4029b7:	b9 01 00 00 00       	mov    $0x1,%ecx
  4029bc:	52                   	push   %rdx
  4029bd:	44 8b 4c 24 18       	mov    0x18(%rsp),%r9d
  4029c2:	ba 01 00 00 00       	mov    $0x1,%edx
  4029c7:	89 ee                	mov    %ebp,%esi
  4029c9:	44 0f b6 44 24 17    	movzbl 0x17(%rsp),%r8d
  4029cf:	e8 cc f6 ff ff       	callq  4020a0 <_Z8DrawRectiiiihhhP7Surface>
  4029d4:	41 59                	pop    %r9
  4029d6:	41 5a                	pop    %r10
  4029d8:	41 f6 c4 04          	test   $0x4,%r12b
  4029dc:	0f 84 d0 fe ff ff    	je     4028b2 <_Z8DrawCharciihhhP7Surface+0x72>
  4029e2:	41 0f b6 d5          	movzbl %r13b,%edx
  4029e6:	41 56                	push   %r14
  4029e8:	41 8d 7f 05          	lea    0x5(%r15),%edi
  4029ec:	b9 01 00 00 00       	mov    $0x1,%ecx
  4029f1:	52                   	push   %rdx
  4029f2:	44 8b 4c 24 18       	mov    0x18(%rsp),%r9d
  4029f7:	ba 01 00 00 00       	mov    $0x1,%edx
  4029fc:	89 ee                	mov    %ebp,%esi
  4029fe:	44 0f b6 44 24 17    	movzbl 0x17(%rsp),%r8d
  402a04:	e8 97 f6 ff ff       	callq  4020a0 <_Z8DrawRectiiiihhhP7Surface>
  402a09:	5f                   	pop    %rdi
  402a0a:	41 58                	pop    %r8
  402a0c:	41 f6 c4 02          	test   $0x2,%r12b
  402a10:	0f 84 a6 fe ff ff    	je     4028bc <_Z8DrawCharciihhhP7Surface+0x7c>
  402a16:	41 0f b6 d5          	movzbl %r13b,%edx
  402a1a:	41 56                	push   %r14
  402a1c:	b9 01 00 00 00       	mov    $0x1,%ecx
  402a21:	89 ee                	mov    %ebp,%esi
  402a23:	52                   	push   %rdx
  402a24:	44 8b 4c 24 18       	mov    0x18(%rsp),%r9d
  402a29:	41 8d 7f 06          	lea    0x6(%r15),%edi
  402a2d:	ba 01 00 00 00       	mov    $0x1,%edx
  402a32:	44 0f b6 44 24 17    	movzbl 0x17(%rsp),%r8d
  402a38:	e8 63 f6 ff ff       	callq  4020a0 <_Z8DrawRectiiiihhhP7Surface>
  402a3d:	41 83 e4 01          	and    $0x1,%r12d
  402a41:	59                   	pop    %rcx
  402a42:	5e                   	pop    %rsi
  402a43:	0f 84 7d fe ff ff    	je     4028c6 <_Z8DrawCharciihhhP7Surface+0x86>
  402a49:	41 0f b6 c5          	movzbl %r13b,%eax
  402a4d:	41 56                	push   %r14
  402a4f:	ba 01 00 00 00       	mov    $0x1,%edx
  402a54:	89 ee                	mov    %ebp,%esi
  402a56:	50                   	push   %rax
  402a57:	44 8b 4c 24 18       	mov    0x18(%rsp),%r9d
  402a5c:	41 8d 7f 07          	lea    0x7(%r15),%edi
  402a60:	b9 01 00 00 00       	mov    $0x1,%ecx
  402a65:	44 0f b6 44 24 17    	movzbl 0x17(%rsp),%r8d
  402a6b:	48 83 eb 80          	sub    $0xffffffffffffff80,%rbx
  402a6f:	83 c5 01             	add    $0x1,%ebp
  402a72:	e8 29 f6 ff ff       	callq  4020a0 <_Z8DrawRectiiiihhhP7Surface>
  402a77:	58                   	pop    %rax
  402a78:	5a                   	pop    %rdx
  402a79:	39 6c 24 0c          	cmp    %ebp,0xc(%rsp)
  402a7d:	0f 85 54 fe ff ff    	jne    4028d7 <_Z8DrawCharciihhhP7Surface+0x97>
  402a83:	48 83 c4 18          	add    $0x18,%rsp
  402a87:	5b                   	pop    %rbx
  402a88:	5d                   	pop    %rbp
  402a89:	41 5c                	pop    %r12
  402a8b:	41 5d                	pop    %r13
  402a8d:	41 5e                	pop    %r14
  402a8f:	41 5f                	pop    %r15
  402a91:	c3                   	retq   
  402a92:	66 66 2e 0f 1f 84 00 	data16 nopw %cs:0x0(%rax,%rax,1)
  402a99:	00 00 00 00 
  402a9d:	0f 1f 00             	nopl   (%rax)

0000000000402aa0 <_Z10DrawStringPcjjhhhP7Surface>:
  402aa0:	41 57                	push   %r15
  402aa2:	49 89 ff             	mov    %rdi,%r15
  402aa5:	41 56                	push   %r14
  402aa7:	41 55                	push   %r13
  402aa9:	41 54                	push   %r12
  402aab:	55                   	push   %rbp
  402aac:	53                   	push   %rbx
  402aad:	48 83 ec 08          	sub    $0x8,%rsp
  402ab1:	0f be 3f             	movsbl (%rdi),%edi
  402ab4:	40 84 ff             	test   %dil,%dil
  402ab7:	74 45                	je     402afe <_Z10DrawStringPcjjhhhP7Surface+0x5e>
  402ab9:	41 89 f5             	mov    %esi,%r13d
  402abc:	41 89 d6             	mov    %edx,%r14d
  402abf:	45 0f b6 e1          	movzbl %r9b,%r12d
  402ac3:	41 0f b6 e8          	movzbl %r8b,%ebp
  402ac7:	0f b6 d9             	movzbl %cl,%ebx
  402aca:	66 0f 1f 44 00 00    	nopw   0x0(%rax,%rax,1)
  402ad0:	48 83 ec 08          	sub    $0x8,%rsp
  402ad4:	44 89 f2             	mov    %r14d,%edx
  402ad7:	44 89 ee             	mov    %r13d,%esi
  402ada:	45 89 e1             	mov    %r12d,%r9d
  402add:	ff 74 24 48          	pushq  0x48(%rsp)
  402ae1:	41 89 e8             	mov    %ebp,%r8d
  402ae4:	89 d9                	mov    %ebx,%ecx
  402ae6:	49 83 c7 01          	add    $0x1,%r15
  402aea:	41 83 c5 08          	add    $0x8,%r13d
  402aee:	e8 4d fd ff ff       	callq  402840 <_Z8DrawCharciihhhP7Surface>
  402af3:	41 0f be 3f          	movsbl (%r15),%edi
  402af7:	58                   	pop    %rax
  402af8:	5a                   	pop    %rdx
  402af9:	40 84 ff             	test   %dil,%dil
  402afc:	75 d2                	jne    402ad0 <_Z10DrawStringPcjjhhhP7Surface+0x30>
  402afe:	48 83 c4 08          	add    $0x8,%rsp
  402b02:	5b                   	pop    %rbx
  402b03:	5d                   	pop    %rbp
  402b04:	41 5c                	pop    %r12
  402b06:	41 5d                	pop    %r13
  402b08:	41 5e                	pop    %r14
  402b0a:	41 5f                	pop    %r15
  402b0c:	c3                   	retq   

0000000000402b0d <syscall>:
  402b0d:	55                   	push   %rbp
  402b0e:	48 89 e5             	mov    %rsp,%rbp
  402b11:	53                   	push   %rbx
  402b12:	48 89 7d f0          	mov    %rdi,-0x10(%rbp)
  402b16:	48 89 75 e8          	mov    %rsi,-0x18(%rbp)
  402b1a:	48 89 55 e0          	mov    %rdx,-0x20(%rbp)
  402b1e:	48 89 4d d8          	mov    %rcx,-0x28(%rbp)
  402b22:	4c 89 45 d0          	mov    %r8,-0x30(%rbp)
  402b26:	4c 89 4d c8          	mov    %r9,-0x38(%rbp)
  402b2a:	48 8b 45 f0          	mov    -0x10(%rbp),%rax
  402b2e:	4c 8b 45 e8          	mov    -0x18(%rbp),%r8
  402b32:	48 8b 4d e0          	mov    -0x20(%rbp),%rcx
  402b36:	48 8b 55 d8          	mov    -0x28(%rbp),%rdx
  402b3a:	48 8b 75 d0          	mov    -0x30(%rbp),%rsi
  402b3e:	48 8b 7d c8          	mov    -0x38(%rbp),%rdi
  402b42:	4c 89 c3             	mov    %r8,%rbx
  402b45:	cd 69                	int    $0x69
  402b47:	90                   	nop
  402b48:	5b                   	pop    %rbx
  402b49:	5d                   	pop    %rbp
  402b4a:	c3                   	retq   

0000000000402b4b <alarm>:
  402b4b:	55                   	push   %rbp
  402b4c:	48 89 e5             	mov    %rsp,%rbp
  402b4f:	48 83 ec 10          	sub    $0x10,%rsp
  402b53:	89 7d fc             	mov    %edi,-0x4(%rbp)
  402b56:	48 8d 0d 62 14 02 00 	lea    0x21462(%rip),%rcx        # 423fbf <_ZZ5alarmE8__func__>
  402b5d:	ba 0f 00 00 00       	mov    $0xf,%edx
  402b62:	48 8d 35 e7 fd 01 00 	lea    0x1fde7(%rip),%rsi        # 422950 <_ZN3frgL6endlogE+0x2>
  402b69:	48 8d 3d 0a fe 01 00 	lea    0x1fe0a(%rip),%rdi        # 42297a <_ZN3frgL6endlogE+0x2c>
  402b70:	e8 aa 74 00 00       	callq  40a01f <__ensure_fail>

0000000000402b75 <chdir>:
  402b75:	55                   	push   %rbp
  402b76:	48 89 e5             	mov    %rsp,%rbp
  402b79:	48 83 ec 20          	sub    $0x20,%rsp
  402b7d:	48 89 7d e8          	mov    %rdi,-0x18(%rbp)
  402b81:	48 c7 c0 00 00 00 00 	mov    $0x0,%rax
  402b88:	48 85 c0             	test   %rax,%rax
  402b8b:	75 3c                	jne    402bc9 <chdir+0x54>
  402b8d:	48 8d 0d 31 14 02 00 	lea    0x21431(%rip),%rcx        # 423fc5 <_ZZ5chdirE8__func__>
  402b94:	ba 15 00 00 00       	mov    $0x15,%edx
  402b99:	48 8d 35 b0 fd 01 00 	lea    0x1fdb0(%rip),%rsi        # 422950 <_ZN3frgL6endlogE+0x2>
  402ba0:	48 8d 3d e9 fd 01 00 	lea    0x1fde9(%rip),%rdi        # 422990 <_ZN3frgL6endlogE+0x42>
  402ba7:	e8 7f 75 00 00       	callq  40a12b <__ensure_warn>
  402bac:	64 48 8b 04 25 00 00 	mov    %fs:0x0,%rax
  402bb3:	00 00 
  402bb5:	48 8d 80 f8 ff ff ff 	lea    -0x8(%rax),%rax
  402bbc:	c7 00 1b 04 00 00    	movl   $0x41b,(%rax)
  402bc2:	b8 ff ff ff ff       	mov    $0xffffffff,%eax
  402bc7:	eb 39                	jmp    402c02 <chdir+0x8d>
  402bc9:	48 8b 45 e8          	mov    -0x18(%rbp),%rax
  402bcd:	48 89 c7             	mov    %rax,%rdi
  402bd0:	e8 2b d4 bf ff       	callq  0 <_ZZ7ttynameE3buf>
  402bd5:	89 45 fc             	mov    %eax,-0x4(%rbp)
  402bd8:	83 7d fc 00          	cmpl   $0x0,-0x4(%rbp)
  402bdc:	74 1f                	je     402bfd <chdir+0x88>
  402bde:	64 48 8b 04 25 00 00 	mov    %fs:0x0,%rax
  402be5:	00 00 
  402be7:	48 8d 80 f8 ff ff ff 	lea    -0x8(%rax),%rax
  402bee:	48 89 c2             	mov    %rax,%rdx
  402bf1:	8b 45 fc             	mov    -0x4(%rbp),%eax
  402bf4:	89 02                	mov    %eax,(%rdx)
  402bf6:	b8 ff ff ff ff       	mov    $0xffffffff,%eax
  402bfb:	eb 05                	jmp    402c02 <chdir+0x8d>
  402bfd:	b8 00 00 00 00       	mov    $0x0,%eax
  402c02:	c9                   	leaveq 
  402c03:	c3                   	retq   

0000000000402c04 <fchdir>:
  402c04:	55                   	push   %rbp
  402c05:	48 89 e5             	mov    %rsp,%rbp
  402c08:	48 83 ec 20          	sub    $0x20,%rsp
  402c0c:	89 7d ec             	mov    %edi,-0x14(%rbp)
  402c0f:	48 c7 c0 00 00 00 00 	mov    $0x0,%rax
  402c16:	48 85 c0             	test   %rax,%rax
  402c19:	75 3c                	jne    402c57 <fchdir+0x53>
  402c1b:	48 8d 0d a9 13 02 00 	lea    0x213a9(%rip),%rcx        # 423fcb <_ZZ6fchdirE8__func__>
  402c22:	ba 22 00 00 00       	mov    $0x22,%edx
  402c27:	48 8d 35 22 fd 01 00 	lea    0x1fd22(%rip),%rsi        # 422950 <_ZN3frgL6endlogE+0x2>
  402c2e:	48 8d 3d 5b fd 01 00 	lea    0x1fd5b(%rip),%rdi        # 422990 <_ZN3frgL6endlogE+0x42>
  402c35:	e8 f1 74 00 00       	callq  40a12b <__ensure_warn>
  402c3a:	64 48 8b 04 25 00 00 	mov    %fs:0x0,%rax
  402c41:	00 00 
  402c43:	48 8d 80 f8 ff ff ff 	lea    -0x8(%rax),%rax
  402c4a:	c7 00 1b 04 00 00    	movl   $0x41b,(%rax)
  402c50:	b8 ff ff ff ff       	mov    $0xffffffff,%eax
  402c55:	eb 37                	jmp    402c8e <fchdir+0x8a>
  402c57:	8b 45 ec             	mov    -0x14(%rbp),%eax
  402c5a:	89 c7                	mov    %eax,%edi
  402c5c:	e8 9f d3 bf ff       	callq  0 <_ZZ7ttynameE3buf>
  402c61:	89 45 fc             	mov    %eax,-0x4(%rbp)
  402c64:	83 7d fc 00          	cmpl   $0x0,-0x4(%rbp)
  402c68:	74 1f                	je     402c89 <fchdir+0x85>
  402c6a:	64 48 8b 04 25 00 00 	mov    %fs:0x0,%rax
  402c71:	00 00 
  402c73:	48 8d 80 f8 ff ff ff 	lea    -0x8(%rax),%rax
  402c7a:	48 89 c2             	mov    %rax,%rdx
  402c7d:	8b 45 fc             	mov    -0x4(%rbp),%eax
  402c80:	89 02                	mov    %eax,(%rdx)
  402c82:	b8 ff ff ff ff       	mov    $0xffffffff,%eax
  402c87:	eb 05                	jmp    402c8e <fchdir+0x8a>
  402c89:	b8 00 00 00 00       	mov    $0x0,%eax
  402c8e:	c9                   	leaveq 
  402c8f:	c3                   	retq   

0000000000402c90 <chown>:
  402c90:	55                   	push   %rbp
  402c91:	48 89 e5             	mov    %rsp,%rbp
  402c94:	48 81 ec b0 00 00 00 	sub    $0xb0,%rsp
  402c9b:	48 89 bd 58 ff ff ff 	mov    %rdi,-0xa8(%rbp)
  402ca2:	89 b5 54 ff ff ff    	mov    %esi,-0xac(%rbp)
  402ca8:	89 95 50 ff ff ff    	mov    %edx,-0xb0(%rbp)
  402cae:	48 8d 85 60 ff ff ff 	lea    -0xa0(%rbp),%rax
  402cb5:	48 c7 c2 70 4f 43 00 	mov    $0x434f70,%rdx
  402cbc:	48 89 d6             	mov    %rdx,%rsi
  402cbf:	48 89 c7             	mov    %rax,%rdi
  402cc2:	e8 b7 26 00 00       	callq  40537e <_ZN3frg19stack_buffer_loggerIN5mlibc8InfoSinkELm128EEclEv>
  402cc7:	48 8d 85 60 ff ff ff 	lea    -0xa0(%rbp),%rax
  402cce:	48 8d 35 eb fc 01 00 	lea    0x1fceb(%rip),%rsi        # 4229c0 <_ZN3frgL6endlogE+0x72>
  402cd5:	48 89 c7             	mov    %rax,%rdi
  402cd8:	e8 d7 26 00 00       	callq  4053b4 <_ZN3frg19stack_buffer_loggerIN5mlibc8InfoSinkELm128EE4itemlsIPKcEERS4_T_>
  402cdd:	48 89 c7             	mov    %rax,%rdi
  402ce0:	e8 f9 26 00 00       	callq  4053de <_ZN3frg19stack_buffer_loggerIN5mlibc8InfoSinkELm128EE4itemlsENS_8endlog_tE>
  402ce5:	48 8d 85 60 ff ff ff 	lea    -0xa0(%rbp),%rax
  402cec:	48 89 c7             	mov    %rax,%rdi
  402cef:	e8 b4 26 00 00       	callq  4053a8 <_ZN3frg19stack_buffer_loggerIN5mlibc8InfoSinkELm128EE4itemD1Ev>
  402cf4:	b8 00 00 00 00       	mov    $0x0,%eax
  402cf9:	c9                   	leaveq 
  402cfa:	c3                   	retq   

0000000000402cfb <confstr>:
  402cfb:	55                   	push   %rbp
  402cfc:	48 89 e5             	mov    %rsp,%rbp
  402cff:	48 83 ec 20          	sub    $0x20,%rsp
  402d03:	89 7d fc             	mov    %edi,-0x4(%rbp)
  402d06:	48 89 75 f0          	mov    %rsi,-0x10(%rbp)
  402d0a:	48 89 55 e8          	mov    %rdx,-0x18(%rbp)
  402d0e:	48 8d 0d c3 12 02 00 	lea    0x212c3(%rip),%rcx        # 423fd8 <_ZZ7confstrE8__func__>
  402d15:	ba 33 00 00 00       	mov    $0x33,%edx
  402d1a:	48 8d 35 2f fc 01 00 	lea    0x1fc2f(%rip),%rsi        # 422950 <_ZN3frgL6endlogE+0x2>
  402d21:	48 8d 3d 52 fc 01 00 	lea    0x1fc52(%rip),%rdi        # 42297a <_ZN3frgL6endlogE+0x2c>
  402d28:	e8 f2 72 00 00       	callq  40a01f <__ensure_fail>

0000000000402d2d <crypt>:
  402d2d:	55                   	push   %rbp
  402d2e:	48 89 e5             	mov    %rsp,%rbp
  402d31:	48 83 ec 10          	sub    $0x10,%rsp
  402d35:	48 89 7d f8          	mov    %rdi,-0x8(%rbp)
  402d39:	48 89 75 f0          	mov    %rsi,-0x10(%rbp)
  402d3d:	48 8d 0d 9c 12 02 00 	lea    0x2129c(%rip),%rcx        # 423fe0 <_ZZ5cryptE8__func__>
  402d44:	ba 37 00 00 00       	mov    $0x37,%edx
  402d49:	48 8d 35 00 fc 01 00 	lea    0x1fc00(%rip),%rsi        # 422950 <_ZN3frgL6endlogE+0x2>
  402d50:	48 8d 3d 23 fc 01 00 	lea    0x1fc23(%rip),%rdi        # 42297a <_ZN3frgL6endlogE+0x2c>
  402d57:	e8 c3 72 00 00       	callq  40a01f <__ensure_fail>

0000000000402d5c <_exit>:
  402d5c:	55                   	push   %rbp
  402d5d:	48 89 e5             	mov    %rsp,%rbp
  402d60:	48 83 ec 10          	sub    $0x10,%rsp
  402d64:	89 7d fc             	mov    %edi,-0x4(%rbp)
  402d67:	8b 45 fc             	mov    -0x4(%rbp),%eax
  402d6a:	89 c7                	mov    %eax,%edi
  402d6c:	e8 d4 e4 01 00       	callq  421245 <_ZN5mlibc8sys_exitEi>

0000000000402d71 <encrypt>:
  402d71:	55                   	push   %rbp
  402d72:	48 89 e5             	mov    %rsp,%rbp
  402d75:	48 83 ec 10          	sub    $0x10,%rsp
  402d79:	48 89 7d f8          	mov    %rdi,-0x8(%rbp)
  402d7d:	89 75 f4             	mov    %esi,-0xc(%rbp)
  402d80:	48 8d 0d 61 12 02 00 	lea    0x21261(%rip),%rcx        # 423fe8 <_ZZ7encryptE8__func__>
  402d87:	ba 3e 00 00 00       	mov    $0x3e,%edx
  402d8c:	48 8d 35 bd fb 01 00 	lea    0x1fbbd(%rip),%rsi        # 422950 <_ZN3frgL6endlogE+0x2>
  402d93:	48 8d 3d e0 fb 01 00 	lea    0x1fbe0(%rip),%rdi        # 42297a <_ZN3frgL6endlogE+0x2c>
  402d9a:	e8 80 72 00 00       	callq  40a01f <__ensure_fail>
  402d9f:	90                   	nop
  402da0:	c9                   	leaveq 
  402da1:	c3                   	retq   

0000000000402da2 <execl>:
  402da2:	55                   	push   %rbp
  402da3:	48 89 e5             	mov    %rsp,%rbp
  402da6:	48 81 ec 70 01 00 00 	sub    $0x170,%rsp
  402dad:	48 89 bd 98 fe ff ff 	mov    %rdi,-0x168(%rbp)
  402db4:	48 89 b5 90 fe ff ff 	mov    %rsi,-0x170(%rbp)
  402dbb:	48 89 95 60 ff ff ff 	mov    %rdx,-0xa0(%rbp)
  402dc2:	48 89 8d 68 ff ff ff 	mov    %rcx,-0x98(%rbp)
  402dc9:	4c 89 85 70 ff ff ff 	mov    %r8,-0x90(%rbp)
  402dd0:	4c 89 8d 78 ff ff ff 	mov    %r9,-0x88(%rbp)
  402dd7:	84 c0                	test   %al,%al
  402dd9:	74 20                	je     402dfb <execl+0x59>
  402ddb:	0f 29 45 80          	movaps %xmm0,-0x80(%rbp)
  402ddf:	0f 29 4d 90          	movaps %xmm1,-0x70(%rbp)
  402de3:	0f 29 55 a0          	movaps %xmm2,-0x60(%rbp)
  402de7:	0f 29 5d b0          	movaps %xmm3,-0x50(%rbp)
  402deb:	0f 29 65 c0          	movaps %xmm4,-0x40(%rbp)
  402def:	0f 29 6d d0          	movaps %xmm5,-0x30(%rbp)
  402df3:	0f 29 75 e0          	movaps %xmm6,-0x20(%rbp)
  402df7:	0f 29 7d f0          	movaps %xmm7,-0x10(%rbp)
  402dfb:	48 8b 85 90 fe ff ff 	mov    -0x170(%rbp),%rax
  402e02:	48 89 85 c0 fe ff ff 	mov    %rax,-0x140(%rbp)
  402e09:	c7 85 4c ff ff ff 01 	movl   $0x1,-0xb4(%rbp)
  402e10:	00 00 00 
  402e13:	c7 85 a8 fe ff ff 10 	movl   $0x10,-0x158(%rbp)
  402e1a:	00 00 00 
  402e1d:	c7 85 ac fe ff ff 30 	movl   $0x30,-0x154(%rbp)
  402e24:	00 00 00 
  402e27:	48 8d 45 10          	lea    0x10(%rbp),%rax
  402e2b:	48 89 85 b0 fe ff ff 	mov    %rax,-0x150(%rbp)
  402e32:	48 8d 85 50 ff ff ff 	lea    -0xb0(%rbp),%rax
  402e39:	48 89 85 b8 fe ff ff 	mov    %rax,-0x148(%rbp)
  402e40:	83 bd 4c ff ff ff 0e 	cmpl   $0xe,-0xb4(%rbp)
  402e47:	7e 1f                	jle    402e68 <execl+0xc6>
  402e49:	48 8d 0d a0 11 02 00 	lea    0x211a0(%rip),%rcx        # 423ff0 <_ZZ5execlE8__func__>
  402e50:	ba 49 00 00 00       	mov    $0x49,%edx
  402e55:	48 8d 35 f4 fa 01 00 	lea    0x1faf4(%rip),%rsi        # 422950 <_ZN3frgL6endlogE+0x2>
  402e5c:	48 8d 3d 93 fb 01 00 	lea    0x1fb93(%rip),%rdi        # 4229f6 <_ZN3frgL6endlogE+0xa8>
  402e63:	e8 b7 71 00 00       	callq  40a01f <__ensure_fail>
  402e68:	8b 85 a8 fe ff ff    	mov    -0x158(%rbp),%eax
  402e6e:	83 f8 2f             	cmp    $0x2f,%eax
  402e71:	77 23                	ja     402e96 <execl+0xf4>
  402e73:	48 8b 85 b8 fe ff ff 	mov    -0x148(%rbp),%rax
  402e7a:	8b 95 a8 fe ff ff    	mov    -0x158(%rbp),%edx
  402e80:	89 d2                	mov    %edx,%edx
  402e82:	48 01 d0             	add    %rdx,%rax
  402e85:	8b 95 a8 fe ff ff    	mov    -0x158(%rbp),%edx
  402e8b:	83 c2 08             	add    $0x8,%edx
  402e8e:	89 95 a8 fe ff ff    	mov    %edx,-0x158(%rbp)
  402e94:	eb 12                	jmp    402ea8 <execl+0x106>
  402e96:	48 8b 85 b0 fe ff ff 	mov    -0x150(%rbp),%rax
  402e9d:	48 8d 50 08          	lea    0x8(%rax),%rdx
  402ea1:	48 89 95 b0 fe ff ff 	mov    %rdx,-0x150(%rbp)
  402ea8:	48 8b 00             	mov    (%rax),%rax
  402eab:	48 89 85 40 ff ff ff 	mov    %rax,-0xc0(%rbp)
  402eb2:	48 8b 95 40 ff ff ff 	mov    -0xc0(%rbp),%rdx
  402eb9:	8b 85 4c ff ff ff    	mov    -0xb4(%rbp),%eax
  402ebf:	8d 48 01             	lea    0x1(%rax),%ecx
  402ec2:	89 8d 4c ff ff ff    	mov    %ecx,-0xb4(%rbp)
  402ec8:	48 98                	cltq   
  402eca:	48 89 94 c5 c0 fe ff 	mov    %rdx,-0x140(%rbp,%rax,8)
  402ed1:	ff 
  402ed2:	48 83 bd 40 ff ff ff 	cmpq   $0x0,-0xc0(%rbp)
  402ed9:	00 
  402eda:	74 05                	je     402ee1 <execl+0x13f>
  402edc:	e9 5f ff ff ff       	jmpq   402e40 <execl+0x9e>
  402ee1:	90                   	nop
  402ee2:	8b 85 4c ff ff ff    	mov    -0xb4(%rbp),%eax
  402ee8:	48 98                	cltq   
  402eea:	48 c7 84 c5 c0 fe ff 	movq   $0x0,-0x140(%rbp,%rax,8)
  402ef1:	ff 00 00 00 00 
  402ef6:	48 c7 c0 c8 4c 43 00 	mov    $0x434cc8,%rax
  402efd:	48 8b 10             	mov    (%rax),%rdx
  402f00:	48 8d 8d c0 fe ff ff 	lea    -0x140(%rbp),%rcx
  402f07:	48 8b 85 98 fe ff ff 	mov    -0x168(%rbp),%rax
  402f0e:	48 89 ce             	mov    %rcx,%rsi
  402f11:	48 89 c7             	mov    %rax,%rdi
  402f14:	e8 f5 1c 00 00       	callq  404c0e <execve>
  402f19:	90                   	nop
  402f1a:	c9                   	leaveq 
  402f1b:	c3                   	retq   

0000000000402f1c <execle>:
  402f1c:	55                   	push   %rbp
  402f1d:	48 89 e5             	mov    %rsp,%rbp
  402f20:	48 81 ec c0 00 00 00 	sub    $0xc0,%rsp
  402f27:	48 89 bd 48 ff ff ff 	mov    %rdi,-0xb8(%rbp)
  402f2e:	48 89 b5 40 ff ff ff 	mov    %rsi,-0xc0(%rbp)
  402f35:	48 89 95 60 ff ff ff 	mov    %rdx,-0xa0(%rbp)
  402f3c:	48 89 8d 68 ff ff ff 	mov    %rcx,-0x98(%rbp)
  402f43:	4c 89 85 70 ff ff ff 	mov    %r8,-0x90(%rbp)
  402f4a:	4c 89 8d 78 ff ff ff 	mov    %r9,-0x88(%rbp)
  402f51:	84 c0                	test   %al,%al
  402f53:	74 20                	je     402f75 <execle+0x59>
  402f55:	0f 29 45 80          	movaps %xmm0,-0x80(%rbp)
  402f59:	0f 29 4d 90          	movaps %xmm1,-0x70(%rbp)
  402f5d:	0f 29 55 a0          	movaps %xmm2,-0x60(%rbp)
  402f61:	0f 29 5d b0          	movaps %xmm3,-0x50(%rbp)
  402f65:	0f 29 65 c0          	movaps %xmm4,-0x40(%rbp)
  402f69:	0f 29 6d d0          	movaps %xmm5,-0x30(%rbp)
  402f6d:	0f 29 75 e0          	movaps %xmm6,-0x20(%rbp)
  402f71:	0f 29 7d f0          	movaps %xmm7,-0x10(%rbp)
  402f75:	48 8d 0d 7a 10 02 00 	lea    0x2107a(%rip),%rcx        # 423ff6 <_ZZ6execleE8__func__>
  402f7c:	ba 55 00 00 00       	mov    $0x55,%edx
  402f81:	48 8d 35 c8 f9 01 00 	lea    0x1f9c8(%rip),%rsi        # 422950 <_ZN3frgL6endlogE+0x2>
  402f88:	48 8d 3d eb f9 01 00 	lea    0x1f9eb(%rip),%rdi        # 42297a <_ZN3frgL6endlogE+0x2c>
  402f8f:	e8 8b 70 00 00       	callq  40a01f <__ensure_fail>

0000000000402f94 <execlp>:
  402f94:	55                   	push   %rbp
  402f95:	48 89 e5             	mov    %rsp,%rbp
  402f98:	48 81 ec c0 00 00 00 	sub    $0xc0,%rsp
  402f9f:	48 89 bd 48 ff ff ff 	mov    %rdi,-0xb8(%rbp)
  402fa6:	48 89 b5 40 ff ff ff 	mov    %rsi,-0xc0(%rbp)
  402fad:	48 89 95 60 ff ff ff 	mov    %rdx,-0xa0(%rbp)
  402fb4:	48 89 8d 68 ff ff ff 	mov    %rcx,-0x98(%rbp)
  402fbb:	4c 89 85 70 ff ff ff 	mov    %r8,-0x90(%rbp)
  402fc2:	4c 89 8d 78 ff ff ff 	mov    %r9,-0x88(%rbp)
  402fc9:	84 c0                	test   %al,%al
  402fcb:	74 20                	je     402fed <execlp+0x59>
  402fcd:	0f 29 45 80          	movaps %xmm0,-0x80(%rbp)
  402fd1:	0f 29 4d 90          	movaps %xmm1,-0x70(%rbp)
  402fd5:	0f 29 55 a0          	movaps %xmm2,-0x60(%rbp)
  402fd9:	0f 29 5d b0          	movaps %xmm3,-0x50(%rbp)
  402fdd:	0f 29 65 c0          	movaps %xmm4,-0x40(%rbp)
  402fe1:	0f 29 6d d0          	movaps %xmm5,-0x30(%rbp)
  402fe5:	0f 29 75 e0          	movaps %xmm6,-0x20(%rbp)
  402fe9:	0f 29 7d f0          	movaps %xmm7,-0x10(%rbp)
  402fed:	48 8d 0d 09 10 02 00 	lea    0x21009(%rip),%rcx        # 423ffd <_ZZ6execlpE8__func__>
  402ff4:	ba 59 00 00 00       	mov    $0x59,%edx
  402ff9:	48 8d 35 50 f9 01 00 	lea    0x1f950(%rip),%rsi        # 422950 <_ZN3frgL6endlogE+0x2>
  403000:	48 8d 3d 73 f9 01 00 	lea    0x1f973(%rip),%rdi        # 42297a <_ZN3frgL6endlogE+0x2c>
  403007:	e8 13 70 00 00       	callq  40a01f <__ensure_fail>

000000000040300c <execv>:
  40300c:	55                   	push   %rbp
  40300d:	48 89 e5             	mov    %rsp,%rbp
  403010:	48 83 ec 10          	sub    $0x10,%rsp
  403014:	48 89 7d f8          	mov    %rdi,-0x8(%rbp)
  403018:	48 89 75 f0          	mov    %rsi,-0x10(%rbp)
  40301c:	48 c7 c0 c8 4c 43 00 	mov    $0x434cc8,%rax
  403023:	48 8b 10             	mov    (%rax),%rdx
  403026:	48 8b 4d f0          	mov    -0x10(%rbp),%rcx
  40302a:	48 8b 45 f8          	mov    -0x8(%rbp),%rax
  40302e:	48 89 ce             	mov    %rcx,%rsi
  403031:	48 89 c7             	mov    %rax,%rdi
  403034:	e8 d5 1b 00 00       	callq  404c0e <execve>
  403039:	c9                   	leaveq 
  40303a:	c3                   	retq   

000000000040303b <execvp>:
  40303b:	55                   	push   %rbp
  40303c:	48 89 e5             	mov    %rsp,%rbp
  40303f:	41 54                	push   %r12
  403041:	53                   	push   %rbx
  403042:	48 81 ec 60 01 00 00 	sub    $0x160,%rsp
  403049:	48 89 bd 98 fe ff ff 	mov    %rdi,-0x168(%rbp)
  403050:	48 89 b5 90 fe ff ff 	mov    %rsi,-0x170(%rbp)
  403057:	48 c7 c0 00 00 00 00 	mov    $0x0,%rax
  40305e:	48 85 c0             	test   %rax,%rax
  403061:	75 3f                	jne    4030a2 <execvp+0x67>
  403063:	48 8d 0d 9a 0f 02 00 	lea    0x20f9a(%rip),%rcx        # 424004 <_ZZ6execvpE8__func__>
  40306a:	ba 63 00 00 00       	mov    $0x63,%edx
  40306f:	48 8d 35 da f8 01 00 	lea    0x1f8da(%rip),%rsi        # 422950 <_ZN3frgL6endlogE+0x2>
  403076:	48 8d 3d 13 f9 01 00 	lea    0x1f913(%rip),%rdi        # 422990 <_ZN3frgL6endlogE+0x42>
  40307d:	e8 a9 70 00 00       	callq  40a12b <__ensure_warn>
  403082:	64 48 8b 04 25 00 00 	mov    %fs:0x0,%rax
  403089:	00 00 
  40308b:	48 8d 80 f8 ff ff ff 	lea    -0x8(%rax),%rax
  403092:	c7 00 1b 04 00 00    	movl   $0x41b,(%rax)
  403098:	bb ff ff ff ff       	mov    $0xffffffff,%ebx
  40309d:	e9 a5 03 00 00       	jmpq   403447 <execvp+0x40c>
  4030a2:	48 8b 85 98 fe ff ff 	mov    -0x168(%rbp),%rax
  4030a9:	be 2f 00 00 00       	mov    $0x2f,%esi
  4030ae:	48 89 c7             	mov    %rax,%rdi
  4030b1:	e8 54 d3 01 00       	callq  42040a <strchr>
  4030b6:	48 85 c0             	test   %rax,%rax
  4030b9:	0f 95 c0             	setne  %al
  4030bc:	84 c0                	test   %al,%al
  4030be:	74 6d                	je     40312d <execvp+0xf2>
  4030c0:	48 c7 c0 c8 4c 43 00 	mov    $0x434cc8,%rax
  4030c7:	48 8b 10             	mov    (%rax),%rdx
  4030ca:	48 8b 8d 90 fe ff ff 	mov    -0x170(%rbp),%rcx
  4030d1:	48 8b 85 98 fe ff ff 	mov    -0x168(%rbp),%rax
  4030d8:	48 89 ce             	mov    %rcx,%rsi
  4030db:	48 89 c7             	mov    %rax,%rdi
  4030de:	e8 1d cf bf ff       	callq  0 <_ZZ7ttynameE3buf>
  4030e3:	89 45 d4             	mov    %eax,-0x2c(%rbp)
  4030e6:	83 7d d4 00          	cmpl   $0x0,-0x2c(%rbp)
  4030ea:	75 1f                	jne    40310b <execvp+0xd0>
  4030ec:	48 8d 0d 11 0f 02 00 	lea    0x20f11(%rip),%rcx        # 424004 <_ZZ6execvpE8__func__>
  4030f3:	ba 6a 00 00 00       	mov    $0x6a,%edx
  4030f8:	48 8d 35 51 f8 01 00 	lea    0x1f851(%rip),%rsi        # 422950 <_ZN3frgL6endlogE+0x2>
  4030ff:	48 8d 3d fa f8 01 00 	lea    0x1f8fa(%rip),%rdi        # 422a00 <_ZN3frgL6endlogE+0xb2>
  403106:	e8 14 6f 00 00       	callq  40a01f <__ensure_fail>
  40310b:	64 48 8b 04 25 00 00 	mov    %fs:0x0,%rax
  403112:	00 00 
  403114:	48 8d 80 f8 ff ff ff 	lea    -0x8(%rax),%rax
  40311b:	48 89 c2             	mov    %rax,%rdx
  40311e:	8b 45 d4             	mov    -0x2c(%rbp),%eax
  403121:	89 02                	mov    %eax,(%rdx)
  403123:	bb ff ff ff ff       	mov    $0xffffffff,%ebx
  403128:	e9 1a 03 00 00       	jmpq   403447 <execvp+0x40c>
  40312d:	48 8d 85 c0 fe ff ff 	lea    -0x140(%rbp),%rax
  403134:	48 89 c7             	mov    %rax,%rdi
  403137:	e8 ce 22 00 00       	callq  40540a <_ZN3frg17basic_string_viewIcEC1Ev>
  40313c:	48 8d 3d fa f8 01 00 	lea    0x1f8fa(%rip),%rdi        # 422a3d <_ZN3frgL6endlogE+0xef>
  403143:	e8 25 b6 00 00       	callq  40e76d <getenv>
  403148:	48 89 45 c8          	mov    %rax,-0x38(%rbp)
  40314c:	48 83 7d c8 00       	cmpq   $0x0,-0x38(%rbp)
  403151:	74 34                	je     403187 <execvp+0x14c>
  403153:	48 8b 55 c8          	mov    -0x38(%rbp),%rdx
  403157:	48 8d 85 d0 fe ff ff 	lea    -0x130(%rbp),%rax
  40315e:	48 89 d6             	mov    %rdx,%rsi
  403161:	48 89 c7             	mov    %rax,%rdi
  403164:	e8 c3 22 00 00       	callq  40542c <_ZN3frg17basic_string_viewIcEC1EPKc>
  403169:	48 8b 85 d0 fe ff ff 	mov    -0x130(%rbp),%rax
  403170:	48 8b 95 d8 fe ff ff 	mov    -0x128(%rbp),%rdx
  403177:	48 89 85 c0 fe ff ff 	mov    %rax,-0x140(%rbp)
  40317e:	48 89 95 c8 fe ff ff 	mov    %rdx,-0x138(%rbp)
  403185:	eb 32                	jmp    4031b9 <execvp+0x17e>
  403187:	48 8d 85 e0 fe ff ff 	lea    -0x120(%rbp),%rax
  40318e:	48 8d 35 ad f8 01 00 	lea    0x1f8ad(%rip),%rsi        # 422a42 <_ZN3frgL6endlogE+0xf4>
  403195:	48 89 c7             	mov    %rax,%rdi
  403198:	e8 8f 22 00 00       	callq  40542c <_ZN3frg17basic_string_viewIcEC1EPKc>
  40319d:	48 8b 85 e0 fe ff ff 	mov    -0x120(%rbp),%rax
  4031a4:	48 8b 95 e8 fe ff ff 	mov    -0x118(%rbp),%rdx
  4031ab:	48 89 85 c0 fe ff ff 	mov    %rax,-0x140(%rbp)
  4031b2:	48 89 95 c8 fe ff ff 	mov    %rdx,-0x138(%rbp)
  4031b9:	48 c7 45 e8 00 00 00 	movq   $0x0,-0x18(%rbp)
  4031c0:	00 
  4031c1:	c7 45 e4 13 04 00 00 	movl   $0x413,-0x1c(%rbp)
  4031c8:	48 8d 85 c0 fe ff ff 	lea    -0x140(%rbp),%rax
  4031cf:	48 89 c7             	mov    %rax,%rdi
  4031d2:	e8 a7 22 00 00       	callq  40547e <_ZNK3frg17basic_string_viewIcE4sizeEv>
  4031d7:	48 39 45 e8          	cmp    %rax,-0x18(%rbp)
  4031db:	0f 92 c0             	setb   %al
  4031de:	84 c0                	test   %al,%al
  4031e0:	0f 84 44 02 00 00    	je     40342a <execvp+0x3ef>
  4031e6:	48 8b 55 e8          	mov    -0x18(%rbp),%rdx
  4031ea:	48 8d 85 c0 fe ff ff 	lea    -0x140(%rbp),%rax
  4031f1:	be 3a 00 00 00       	mov    $0x3a,%esi
  4031f6:	48 89 c7             	mov    %rax,%rdi
  4031f9:	e8 92 22 00 00       	callq  405490 <_ZN3frg17basic_string_viewIcE10find_firstEcm>
  4031fe:	48 89 45 c0          	mov    %rax,-0x40(%rbp)
  403202:	48 83 7d c0 ff       	cmpq   $0xffffffffffffffff,-0x40(%rbp)
  403207:	74 0a                	je     403213 <execvp+0x1d8>
  403209:	48 8b 45 c0          	mov    -0x40(%rbp),%rax
  40320d:	48 89 45 d8          	mov    %rax,-0x28(%rbp)
  403211:	eb 13                	jmp    403226 <execvp+0x1eb>
  403213:	48 8d 85 c0 fe ff ff 	lea    -0x140(%rbp),%rax
  40321a:	48 89 c7             	mov    %rax,%rdi
  40321d:	e8 5c 22 00 00       	callq  40547e <_ZNK3frg17basic_string_viewIcE4sizeEv>
  403222:	48 89 45 d8          	mov    %rax,-0x28(%rbp)
  403226:	e8 4d 6a 00 00       	callq  409c78 <_Z12getAllocatorv>
  40322b:	48 89 c2             	mov    %rax,%rdx
  40322e:	48 8d 85 a0 fe ff ff 	lea    -0x160(%rbp),%rax
  403235:	48 89 d6             	mov    %rdx,%rsi
  403238:	48 89 c7             	mov    %rax,%rdi
  40323b:	e8 a4 22 00 00       	callq  4054e4 <_ZN3frg12basic_stringIcNS_14slab_allocatorI16VirtualAllocator13AllocatorLockEEEC1ERS4_>
  403240:	48 8b 45 d8          	mov    -0x28(%rbp),%rax
  403244:	48 2b 45 e8          	sub    -0x18(%rbp),%rax
  403248:	48 89 c2             	mov    %rax,%rdx
  40324b:	48 8b 4d e8          	mov    -0x18(%rbp),%rcx
  40324f:	48 8d 85 c0 fe ff ff 	lea    -0x140(%rbp),%rax
  403256:	48 89 ce             	mov    %rcx,%rsi
  403259:	48 89 c7             	mov    %rax,%rdi
  40325c:	e8 eb 22 00 00       	callq  40554c <_ZN3frg17basic_string_viewIcE10sub_stringEmm>
  403261:	48 89 85 f0 fe ff ff 	mov    %rax,-0x110(%rbp)
  403268:	48 89 95 f8 fe ff ff 	mov    %rdx,-0x108(%rbp)
  40326f:	48 8d 95 f0 fe ff ff 	lea    -0x110(%rbp),%rdx
  403276:	48 8d 85 a0 fe ff ff 	lea    -0x160(%rbp),%rax
  40327d:	48 89 d6             	mov    %rdx,%rsi
  403280:	48 89 c7             	mov    %rax,%rdi
  403283:	e8 36 23 00 00       	callq  4055be <_ZN3frg12basic_stringIcNS_14slab_allocatorI16VirtualAllocator13AllocatorLockEEEpLERKNS_17basic_string_viewIcEE>
  403288:	48 8d 85 00 ff ff ff 	lea    -0x100(%rbp),%rax
  40328f:	48 8d 35 ba f7 01 00 	lea    0x1f7ba(%rip),%rsi        # 422a50 <_ZN3frgL6endlogE+0x102>
  403296:	48 89 c7             	mov    %rax,%rdi
  403299:	e8 8e 21 00 00       	callq  40542c <_ZN3frg17basic_string_viewIcEC1EPKc>
  40329e:	48 8d 95 00 ff ff ff 	lea    -0x100(%rbp),%rdx
  4032a5:	48 8d 85 a0 fe ff ff 	lea    -0x160(%rbp),%rax
  4032ac:	48 89 d6             	mov    %rdx,%rsi
  4032af:	48 89 c7             	mov    %rax,%rdi
  4032b2:	e8 07 23 00 00       	callq  4055be <_ZN3frg12basic_stringIcNS_14slab_allocatorI16VirtualAllocator13AllocatorLockEEEpLERKNS_17basic_string_viewIcEE>
  4032b7:	48 8b 95 98 fe ff ff 	mov    -0x168(%rbp),%rdx
  4032be:	48 8d 85 10 ff ff ff 	lea    -0xf0(%rbp),%rax
  4032c5:	48 89 d6             	mov    %rdx,%rsi
  4032c8:	48 89 c7             	mov    %rax,%rdi
  4032cb:	e8 5c 21 00 00       	callq  40542c <_ZN3frg17basic_string_viewIcEC1EPKc>
  4032d0:	48 8d 95 10 ff ff ff 	lea    -0xf0(%rbp),%rdx
  4032d7:	48 8d 85 a0 fe ff ff 	lea    -0x160(%rbp),%rax
  4032de:	48 89 d6             	mov    %rdx,%rsi
  4032e1:	48 89 c7             	mov    %rax,%rdi
  4032e4:	e8 d5 22 00 00       	callq  4055be <_ZN3frg12basic_stringIcNS_14slab_allocatorI16VirtualAllocator13AllocatorLockEEEpLERKNS_17basic_string_viewIcEE>
  4032e9:	48 8d 85 20 ff ff ff 	lea    -0xe0(%rbp),%rax
  4032f0:	48 c7 c2 70 4f 43 00 	mov    $0x434f70,%rdx
  4032f7:	48 89 d6             	mov    %rdx,%rsi
  4032fa:	48 89 c7             	mov    %rax,%rdi
  4032fd:	e8 7c 20 00 00       	callq  40537e <_ZN3frg19stack_buffer_loggerIN5mlibc8InfoSinkELm128EEclEv>
  403302:	48 8d 85 20 ff ff ff 	lea    -0xe0(%rbp),%rax
  403309:	48 8d 35 42 f7 01 00 	lea    0x1f742(%rip),%rsi        # 422a52 <_ZN3frgL6endlogE+0x104>
  403310:	48 89 c7             	mov    %rax,%rdi
  403313:	e8 9c 20 00 00       	callq  4053b4 <_ZN3frg19stack_buffer_loggerIN5mlibc8InfoSinkELm128EE4itemlsIPKcEERS4_T_>
  403318:	49 89 c4             	mov    %rax,%r12
  40331b:	48 8d 85 a0 fe ff ff 	lea    -0x160(%rbp),%rax
  403322:	48 89 c7             	mov    %rax,%rdi
  403325:	e8 90 23 00 00       	callq  4056ba <_ZN3frg12basic_stringIcNS_14slab_allocatorI16VirtualAllocator13AllocatorLockEEE4dataEv>
  40332a:	48 89 c6             	mov    %rax,%rsi
  40332d:	4c 89 e7             	mov    %r12,%rdi
  403330:	e8 97 23 00 00       	callq  4056cc <_ZN3frg19stack_buffer_loggerIN5mlibc8InfoSinkELm128EE4itemlsIPcEERS4_T_>
  403335:	48 8d 35 2e f7 01 00 	lea    0x1f72e(%rip),%rsi        # 422a6a <_ZN3frgL6endlogE+0x11c>
  40333c:	48 89 c7             	mov    %rax,%rdi
  40333f:	e8 70 20 00 00       	callq  4053b4 <_ZN3frg19stack_buffer_loggerIN5mlibc8InfoSinkELm128EE4itemlsIPKcEERS4_T_>
  403344:	48 89 c7             	mov    %rax,%rdi
  403347:	e8 92 20 00 00       	callq  4053de <_ZN3frg19stack_buffer_loggerIN5mlibc8InfoSinkELm128EE4itemlsENS_8endlog_tE>
  40334c:	48 8d 85 20 ff ff ff 	lea    -0xe0(%rbp),%rax
  403353:	48 89 c7             	mov    %rax,%rdi
  403356:	e8 4d 20 00 00       	callq  4053a8 <_ZN3frg19stack_buffer_loggerIN5mlibc8InfoSinkELm128EE4itemD1Ev>
  40335b:	48 c7 c0 c8 4c 43 00 	mov    $0x434cc8,%rax
  403362:	4c 8b 20             	mov    (%rax),%r12
  403365:	48 8d 85 a0 fe ff ff 	lea    -0x160(%rbp),%rax
  40336c:	48 89 c7             	mov    %rax,%rdi
  40336f:	e8 46 23 00 00       	callq  4056ba <_ZN3frg12basic_stringIcNS_14slab_allocatorI16VirtualAllocator13AllocatorLockEEE4dataEv>
  403374:	48 89 c1             	mov    %rax,%rcx
  403377:	48 8b 85 90 fe ff ff 	mov    -0x170(%rbp),%rax
  40337e:	4c 89 e2             	mov    %r12,%rdx
  403381:	48 89 c6             	mov    %rax,%rsi
  403384:	48 89 cf             	mov    %rcx,%rdi
  403387:	e8 74 cc bf ff       	callq  0 <_ZZ7ttynameE3buf>
  40338c:	89 45 bc             	mov    %eax,-0x44(%rbp)
  40338f:	83 7d bc 00          	cmpl   $0x0,-0x44(%rbp)
  403393:	75 1f                	jne    4033b4 <execvp+0x379>
  403395:	48 8d 0d 68 0c 02 00 	lea    0x20c68(%rip),%rcx        # 424004 <_ZZ6execvpE8__func__>
  40339c:	ba 87 00 00 00       	mov    $0x87,%edx
  4033a1:	48 8d 35 a8 f5 01 00 	lea    0x1f5a8(%rip),%rsi        # 422950 <_ZN3frgL6endlogE+0x2>
  4033a8:	48 8d 3d 51 f6 01 00 	lea    0x1f651(%rip),%rdi        # 422a00 <_ZN3frgL6endlogE+0xb2>
  4033af:	e8 6b 6c 00 00       	callq  40a01f <__ensure_fail>
  4033b4:	81 7d bc 13 04 00 00 	cmpl   $0x413,-0x44(%rbp)
  4033bb:	74 40                	je     4033fd <execvp+0x3c2>
  4033bd:	81 7d bc 1d 04 00 00 	cmpl   $0x41d,-0x44(%rbp)
  4033c4:	74 37                	je     4033fd <execvp+0x3c2>
  4033c6:	81 7d bc ea 03 00 00 	cmpl   $0x3ea,-0x44(%rbp)
  4033cd:	75 09                	jne    4033d8 <execvp+0x39d>
  4033cf:	c7 45 e4 ea 03 00 00 	movl   $0x3ea,-0x1c(%rbp)
  4033d6:	eb 26                	jmp    4033fe <execvp+0x3c3>
  4033d8:	64 48 8b 04 25 00 00 	mov    %fs:0x0,%rax
  4033df:	00 00 
  4033e1:	48 8d 80 f8 ff ff ff 	lea    -0x8(%rax),%rax
  4033e8:	48 89 c2             	mov    %rax,%rdx
  4033eb:	8b 45 bc             	mov    -0x44(%rbp),%eax
  4033ee:	89 02                	mov    %eax,(%rdx)
  4033f0:	bb ff ff ff ff       	mov    $0xffffffff,%ebx
  4033f5:	41 bc 00 00 00 00    	mov    $0x0,%r12d
  4033fb:	eb 13                	jmp    403410 <execvp+0x3d5>
  4033fd:	90                   	nop
  4033fe:	48 8b 45 d8          	mov    -0x28(%rbp),%rax
  403402:	48 83 c0 01          	add    $0x1,%rax
  403406:	48 89 45 e8          	mov    %rax,-0x18(%rbp)
  40340a:	41 bc 01 00 00 00    	mov    $0x1,%r12d
  403410:	48 8d 85 a0 fe ff ff 	lea    -0x160(%rbp),%rax
  403417:	48 89 c7             	mov    %rax,%rdi
  40341a:	e8 f7 20 00 00       	callq  405516 <_ZN3frg12basic_stringIcNS_14slab_allocatorI16VirtualAllocator13AllocatorLockEEED1Ev>
  40341f:	41 83 fc 01          	cmp    $0x1,%r12d
  403423:	75 22                	jne    403447 <execvp+0x40c>
  403425:	e9 9e fd ff ff       	jmpq   4031c8 <execvp+0x18d>
  40342a:	64 48 8b 04 25 00 00 	mov    %fs:0x0,%rax
  403431:	00 00 
  403433:	48 8d 80 f8 ff ff ff 	lea    -0x8(%rax),%rax
  40343a:	48 89 c2             	mov    %rax,%rdx
  40343d:	8b 45 e4             	mov    -0x1c(%rbp),%eax
  403440:	89 02                	mov    %eax,(%rdx)
  403442:	bb ff ff ff ff       	mov    $0xffffffff,%ebx
  403447:	89 d8                	mov    %ebx,%eax
  403449:	48 81 c4 60 01 00 00 	add    $0x160,%rsp
  403450:	5b                   	pop    %rbx
  403451:	41 5c                	pop    %r12
  403453:	5d                   	pop    %rbp
  403454:	c3                   	retq   

0000000000403455 <faccessat>:
  403455:	55                   	push   %rbp
  403456:	48 89 e5             	mov    %rsp,%rbp
  403459:	48 83 ec 20          	sub    $0x20,%rsp
  40345d:	89 7d fc             	mov    %edi,-0x4(%rbp)
  403460:	48 89 75 f0          	mov    %rsi,-0x10(%rbp)
  403464:	89 55 f8             	mov    %edx,-0x8(%rbp)
  403467:	89 4d ec             	mov    %ecx,-0x14(%rbp)
  40346a:	48 8d 0d 9f 0b 02 00 	lea    0x20b9f(%rip),%rcx        # 424010 <_ZZ9faccessatE8__func__>
  403471:	ba 9c 00 00 00       	mov    $0x9c,%edx
  403476:	48 8d 35 d3 f4 01 00 	lea    0x1f4d3(%rip),%rsi        # 422950 <_ZN3frgL6endlogE+0x2>
  40347d:	48 8d 3d f6 f4 01 00 	lea    0x1f4f6(%rip),%rdi        # 42297a <_ZN3frgL6endlogE+0x2c>
  403484:	e8 96 6b 00 00       	callq  40a01f <__ensure_fail>

0000000000403489 <fchown>:
  403489:	55                   	push   %rbp
  40348a:	48 89 e5             	mov    %rsp,%rbp
  40348d:	48 83 ec 10          	sub    $0x10,%rsp
  403491:	89 7d fc             	mov    %edi,-0x4(%rbp)
  403494:	89 75 f8             	mov    %esi,-0x8(%rbp)
  403497:	89 55 f4             	mov    %edx,-0xc(%rbp)
  40349a:	48 8d 0d 79 0b 02 00 	lea    0x20b79(%rip),%rcx        # 42401a <_ZZ6fchownE8__func__>
  4034a1:	ba a0 00 00 00       	mov    $0xa0,%edx
  4034a6:	48 8d 35 a3 f4 01 00 	lea    0x1f4a3(%rip),%rsi        # 422950 <_ZN3frgL6endlogE+0x2>
  4034ad:	48 8d 3d c6 f4 01 00 	lea    0x1f4c6(%rip),%rdi        # 42297a <_ZN3frgL6endlogE+0x2c>
  4034b4:	e8 66 6b 00 00       	callq  40a01f <__ensure_fail>

00000000004034b9 <fchownat>:
  4034b9:	55                   	push   %rbp
  4034ba:	48 89 e5             	mov    %rsp,%rbp
  4034bd:	48 83 ec 20          	sub    $0x20,%rsp
  4034c1:	89 7d fc             	mov    %edi,-0x4(%rbp)
  4034c4:	48 89 75 f0          	mov    %rsi,-0x10(%rbp)
  4034c8:	89 55 f8             	mov    %edx,-0x8(%rbp)
  4034cb:	89 4d ec             	mov    %ecx,-0x14(%rbp)
  4034ce:	44 89 45 e8          	mov    %r8d,-0x18(%rbp)
  4034d2:	48 8d 0d 4f 0b 02 00 	lea    0x20b4f(%rip),%rcx        # 424028 <_ZZ8fchownatE8__func__>
  4034d9:	ba a4 00 00 00       	mov    $0xa4,%edx
  4034de:	48 8d 35 6b f4 01 00 	lea    0x1f46b(%rip),%rsi        # 422950 <_ZN3frgL6endlogE+0x2>
  4034e5:	48 8d 3d 8e f4 01 00 	lea    0x1f48e(%rip),%rdi        # 42297a <_ZN3frgL6endlogE+0x2c>
  4034ec:	e8 2e 6b 00 00       	callq  40a01f <__ensure_fail>

00000000004034f1 <fdatasync>:
  4034f1:	55                   	push   %rbp
  4034f2:	48 89 e5             	mov    %rsp,%rbp
  4034f5:	48 83 ec 10          	sub    $0x10,%rsp
  4034f9:	89 7d fc             	mov    %edi,-0x4(%rbp)
  4034fc:	48 8d 0d 35 0b 02 00 	lea    0x20b35(%rip),%rcx        # 424038 <_ZZ9fdatasyncE8__func__>
  403503:	ba a8 00 00 00       	mov    $0xa8,%edx
  403508:	48 8d 35 41 f4 01 00 	lea    0x1f441(%rip),%rsi        # 422950 <_ZN3frgL6endlogE+0x2>
  40350f:	48 8d 3d 64 f4 01 00 	lea    0x1f464(%rip),%rdi        # 42297a <_ZN3frgL6endlogE+0x2c>
  403516:	e8 04 6b 00 00       	callq  40a01f <__ensure_fail>

000000000040351b <fexecve>:
  40351b:	55                   	push   %rbp
  40351c:	48 89 e5             	mov    %rsp,%rbp
  40351f:	48 83 ec 20          	sub    $0x20,%rsp
  403523:	89 7d fc             	mov    %edi,-0x4(%rbp)
  403526:	48 89 75 f0          	mov    %rsi,-0x10(%rbp)
  40352a:	48 89 55 e8          	mov    %rdx,-0x18(%rbp)
  40352e:	48 8d 0d 13 0b 02 00 	lea    0x20b13(%rip),%rcx        # 424048 <_ZZ7fexecveE8__func__>
  403535:	ba ac 00 00 00       	mov    $0xac,%edx
  40353a:	48 8d 35 0f f4 01 00 	lea    0x1f40f(%rip),%rsi        # 422950 <_ZN3frgL6endlogE+0x2>
  403541:	48 8d 3d 32 f4 01 00 	lea    0x1f432(%rip),%rdi        # 42297a <_ZN3frgL6endlogE+0x2c>
  403548:	e8 d2 6a 00 00       	callq  40a01f <__ensure_fail>

000000000040354d <fpathconf>:
  40354d:	55                   	push   %rbp
  40354e:	48 89 e5             	mov    %rsp,%rbp
  403551:	48 83 ec 10          	sub    $0x10,%rsp
  403555:	89 7d fc             	mov    %edi,-0x4(%rbp)
  403558:	89 75 f8             	mov    %esi,-0x8(%rbp)
  40355b:	48 8d 0d ee 0a 02 00 	lea    0x20aee(%rip),%rcx        # 424050 <_ZZ9fpathconfE8__func__>
  403562:	ba b0 00 00 00       	mov    $0xb0,%edx
  403567:	48 8d 35 e2 f3 01 00 	lea    0x1f3e2(%rip),%rsi        # 422950 <_ZN3frgL6endlogE+0x2>
  40356e:	48 8d 3d 05 f4 01 00 	lea    0x1f405(%rip),%rdi        # 42297a <_ZN3frgL6endlogE+0x2c>
  403575:	e8 a5 6a 00 00       	callq  40a01f <__ensure_fail>

000000000040357a <fsync>:
  40357a:	55                   	push   %rbp
  40357b:	48 89 e5             	mov    %rsp,%rbp
  40357e:	48 83 ec 20          	sub    $0x20,%rsp
  403582:	89 7d ec             	mov    %edi,-0x14(%rbp)
  403585:	48 c7 c0 00 00 00 00 	mov    $0x0,%rax
  40358c:	48 85 c0             	test   %rax,%rax
  40358f:	75 3c                	jne    4035cd <fsync+0x53>
  403591:	48 8d 0d c2 0a 02 00 	lea    0x20ac2(%rip),%rcx        # 42405a <_ZZ5fsyncE8__func__>
  403598:	ba b5 00 00 00       	mov    $0xb5,%edx
  40359d:	48 8d 35 ac f3 01 00 	lea    0x1f3ac(%rip),%rsi        # 422950 <_ZN3frgL6endlogE+0x2>
  4035a4:	48 8d 3d e5 f3 01 00 	lea    0x1f3e5(%rip),%rdi        # 422990 <_ZN3frgL6endlogE+0x42>
  4035ab:	e8 7b 6b 00 00       	callq  40a12b <__ensure_warn>
  4035b0:	64 48 8b 04 25 00 00 	mov    %fs:0x0,%rax
  4035b7:	00 00 
  4035b9:	48 8d 80 f8 ff ff ff 	lea    -0x8(%rax),%rax
  4035c0:	c7 00 1b 04 00 00    	movl   $0x41b,(%rax)
  4035c6:	b8 ff ff ff ff       	mov    $0xffffffff,%eax
  4035cb:	eb 37                	jmp    403604 <fsync+0x8a>
  4035cd:	8b 45 ec             	mov    -0x14(%rbp),%eax
  4035d0:	89 c7                	mov    %eax,%edi
  4035d2:	e8 29 ca bf ff       	callq  0 <_ZZ7ttynameE3buf>
  4035d7:	89 45 fc             	mov    %eax,-0x4(%rbp)
  4035da:	83 7d fc 00          	cmpl   $0x0,-0x4(%rbp)
  4035de:	74 1f                	je     4035ff <fsync+0x85>
  4035e0:	64 48 8b 04 25 00 00 	mov    %fs:0x0,%rax
  4035e7:	00 00 
  4035e9:	48 8d 80 f8 ff ff ff 	lea    -0x8(%rax),%rax
  4035f0:	48 89 c2             	mov    %rax,%rdx
  4035f3:	8b 45 fc             	mov    -0x4(%rbp),%eax
  4035f6:	89 02                	mov    %eax,(%rdx)
  4035f8:	b8 ff ff ff ff       	mov    $0xffffffff,%eax
  4035fd:	eb 05                	jmp    403604 <fsync+0x8a>
  4035ff:	b8 00 00 00 00       	mov    $0x0,%eax
  403604:	c9                   	leaveq 
  403605:	c3                   	retq   

0000000000403606 <ftruncate>:
  403606:	55                   	push   %rbp
  403607:	48 89 e5             	mov    %rsp,%rbp
  40360a:	48 83 ec 20          	sub    $0x20,%rsp
  40360e:	89 7d ec             	mov    %edi,-0x14(%rbp)
  403611:	48 89 75 e0          	mov    %rsi,-0x20(%rbp)
  403615:	48 c7 c0 00 00 00 00 	mov    $0x0,%rax
  40361c:	48 85 c0             	test   %rax,%rax
  40361f:	75 3c                	jne    40365d <ftruncate+0x57>
  403621:	48 8d 0d 38 0a 02 00 	lea    0x20a38(%rip),%rcx        # 424060 <_ZZ9ftruncateE8__func__>
  403628:	ba c1 00 00 00       	mov    $0xc1,%edx
  40362d:	48 8d 35 1c f3 01 00 	lea    0x1f31c(%rip),%rsi        # 422950 <_ZN3frgL6endlogE+0x2>
  403634:	48 8d 3d 55 f3 01 00 	lea    0x1f355(%rip),%rdi        # 422990 <_ZN3frgL6endlogE+0x42>
  40363b:	e8 eb 6a 00 00       	callq  40a12b <__ensure_warn>
  403640:	64 48 8b 04 25 00 00 	mov    %fs:0x0,%rax
  403647:	00 00 
  403649:	48 8d 80 f8 ff ff ff 	lea    -0x8(%rax),%rax
  403650:	c7 00 1b 04 00 00    	movl   $0x41b,(%rax)
  403656:	b8 ff ff ff ff       	mov    $0xffffffff,%eax
  40365b:	eb 3e                	jmp    40369b <ftruncate+0x95>
  40365d:	48 8b 55 e0          	mov    -0x20(%rbp),%rdx
  403661:	8b 45 ec             	mov    -0x14(%rbp),%eax
  403664:	48 89 d6             	mov    %rdx,%rsi
  403667:	89 c7                	mov    %eax,%edi
  403669:	e8 92 c9 bf ff       	callq  0 <_ZZ7ttynameE3buf>
  40366e:	89 45 fc             	mov    %eax,-0x4(%rbp)
  403671:	83 7d fc 00          	cmpl   $0x0,-0x4(%rbp)
  403675:	74 1f                	je     403696 <ftruncate+0x90>
  403677:	64 48 8b 04 25 00 00 	mov    %fs:0x0,%rax
  40367e:	00 00 
  403680:	48 8d 80 f8 ff ff ff 	lea    -0x8(%rax),%rax
  403687:	48 89 c2             	mov    %rax,%rdx
  40368a:	8b 45 fc             	mov    -0x4(%rbp),%eax
  40368d:	89 02                	mov    %eax,(%rdx)
  40368f:	b8 ff ff ff ff       	mov    $0xffffffff,%eax
  403694:	eb 05                	jmp    40369b <ftruncate+0x95>
  403696:	b8 00 00 00 00       	mov    $0x0,%eax
  40369b:	c9                   	leaveq 
  40369c:	c3                   	retq   

000000000040369d <getcwd>:
  40369d:	55                   	push   %rbp
  40369e:	48 89 e5             	mov    %rsp,%rbp
  4036a1:	48 83 ec 20          	sub    $0x20,%rsp
  4036a5:	48 89 7d e8          	mov    %rdi,-0x18(%rbp)
  4036a9:	48 89 75 e0          	mov    %rsi,-0x20(%rbp)
  4036ad:	48 83 7d e8 00       	cmpq   $0x0,-0x18(%rbp)
  4036b2:	75 1f                	jne    4036d3 <getcwd+0x36>
  4036b4:	48 8d 0d af 09 02 00 	lea    0x209af(%rip),%rcx        # 42406a <_ZZ6getcwdE8__func__>
  4036bb:	ba cc 00 00 00       	mov    $0xcc,%edx
  4036c0:	48 8d 35 89 f2 01 00 	lea    0x1f289(%rip),%rsi        # 422950 <_ZN3frgL6endlogE+0x2>
  4036c7:	48 8d 3d a2 f3 01 00 	lea    0x1f3a2(%rip),%rdi        # 422a70 <_ZN3frgL6endlogE+0x122>
  4036ce:	e8 4c 69 00 00       	callq  40a01f <__ensure_fail>
  4036d3:	48 c7 c0 00 00 00 00 	mov    $0x0,%rax
  4036da:	48 85 c0             	test   %rax,%rax
  4036dd:	75 3c                	jne    40371b <getcwd+0x7e>
  4036df:	48 8d 0d 84 09 02 00 	lea    0x20984(%rip),%rcx        # 42406a <_ZZ6getcwdE8__func__>
  4036e6:	ba ce 00 00 00       	mov    $0xce,%edx
  4036eb:	48 8d 35 5e f2 01 00 	lea    0x1f25e(%rip),%rsi        # 422950 <_ZN3frgL6endlogE+0x2>
  4036f2:	48 8d 3d 97 f2 01 00 	lea    0x1f297(%rip),%rdi        # 422990 <_ZN3frgL6endlogE+0x42>
  4036f9:	e8 2d 6a 00 00       	callq  40a12b <__ensure_warn>
  4036fe:	64 48 8b 04 25 00 00 	mov    %fs:0x0,%rax
  403705:	00 00 
  403707:	48 8d 80 f8 ff ff ff 	lea    -0x8(%rax),%rax
  40370e:	c7 00 1b 04 00 00    	movl   $0x41b,(%rax)
  403714:	b8 00 00 00 00       	mov    $0x0,%eax
  403719:	eb 3f                	jmp    40375a <getcwd+0xbd>
  40371b:	48 8b 55 e0          	mov    -0x20(%rbp),%rdx
  40371f:	48 8b 45 e8          	mov    -0x18(%rbp),%rax
  403723:	48 89 d6             	mov    %rdx,%rsi
  403726:	48 89 c7             	mov    %rax,%rdi
  403729:	e8 d2 c8 bf ff       	callq  0 <_ZZ7ttynameE3buf>
  40372e:	89 45 fc             	mov    %eax,-0x4(%rbp)
  403731:	83 7d fc 00          	cmpl   $0x0,-0x4(%rbp)
  403735:	74 1f                	je     403756 <getcwd+0xb9>
  403737:	64 48 8b 04 25 00 00 	mov    %fs:0x0,%rax
  40373e:	00 00 
  403740:	48 8d 80 f8 ff ff ff 	lea    -0x8(%rax),%rax
  403747:	48 89 c2             	mov    %rax,%rdx
  40374a:	8b 45 fc             	mov    -0x4(%rbp),%eax
  40374d:	89 02                	mov    %eax,(%rdx)
  40374f:	b8 00 00 00 00       	mov    $0x0,%eax
  403754:	eb 04                	jmp    40375a <getcwd+0xbd>
  403756:	48 8b 45 e8          	mov    -0x18(%rbp),%rax
  40375a:	c9                   	leaveq 
  40375b:	c3                   	retq   

000000000040375c <getgroups>:
  40375c:	55                   	push   %rbp
  40375d:	48 89 e5             	mov    %rsp,%rbp
  403760:	48 83 ec 10          	sub    $0x10,%rsp
  403764:	89 7d fc             	mov    %edi,-0x4(%rbp)
  403767:	48 89 75 f0          	mov    %rsi,-0x10(%rbp)
  40376b:	48 8d 0d 06 09 02 00 	lea    0x20906(%rip),%rcx        # 424078 <_ZZ9getgroupsE8__func__>
  403772:	ba d9 00 00 00       	mov    $0xd9,%edx
  403777:	48 8d 35 d2 f1 01 00 	lea    0x1f1d2(%rip),%rsi        # 422950 <_ZN3frgL6endlogE+0x2>
  40377e:	48 8d 3d f5 f1 01 00 	lea    0x1f1f5(%rip),%rdi        # 42297a <_ZN3frgL6endlogE+0x2c>
  403785:	e8 95 68 00 00       	callq  40a01f <__ensure_fail>

000000000040378a <gethostid>:
  40378a:	55                   	push   %rbp
  40378b:	48 89 e5             	mov    %rsp,%rbp
  40378e:	48 8d 0d f3 08 02 00 	lea    0x208f3(%rip),%rcx        # 424088 <_ZZ9gethostidE8__func__>
  403795:	ba dd 00 00 00       	mov    $0xdd,%edx
  40379a:	48 8d 35 af f1 01 00 	lea    0x1f1af(%rip),%rsi        # 422950 <_ZN3frgL6endlogE+0x2>
  4037a1:	48 8d 3d d2 f1 01 00 	lea    0x1f1d2(%rip),%rdi        # 42297a <_ZN3frgL6endlogE+0x2c>
  4037a8:	e8 72 68 00 00       	callq  40a01f <__ensure_fail>

00000000004037ad <gethostname>:
  4037ad:	55                   	push   %rbp
  4037ae:	48 89 e5             	mov    %rsp,%rbp
  4037b1:	48 83 ec 20          	sub    $0x20,%rsp
  4037b5:	48 89 7d e8          	mov    %rdi,-0x18(%rbp)
  4037b9:	48 89 75 e0          	mov    %rsi,-0x20(%rbp)
  4037bd:	48 c7 c0 00 00 00 00 	mov    $0x0,%rax
  4037c4:	48 85 c0             	test   %rax,%rax
  4037c7:	75 3c                	jne    403805 <gethostname+0x58>
  4037c9:	48 8d 0d c8 08 02 00 	lea    0x208c8(%rip),%rcx        # 424098 <_ZZ11gethostnameE8__func__>
  4037d0:	ba e3 00 00 00       	mov    $0xe3,%edx
  4037d5:	48 8d 35 74 f1 01 00 	lea    0x1f174(%rip),%rsi        # 422950 <_ZN3frgL6endlogE+0x2>
  4037dc:	48 8d 3d ad f1 01 00 	lea    0x1f1ad(%rip),%rdi        # 422990 <_ZN3frgL6endlogE+0x42>
  4037e3:	e8 43 69 00 00       	callq  40a12b <__ensure_warn>
  4037e8:	64 48 8b 04 25 00 00 	mov    %fs:0x0,%rax
  4037ef:	00 00 
  4037f1:	48 8d 80 f8 ff ff ff 	lea    -0x8(%rax),%rax
  4037f8:	c7 00 1b 04 00 00    	movl   $0x41b,(%rax)
  4037fe:	b8 ff ff ff ff       	mov    $0xffffffff,%eax
  403803:	eb 40                	jmp    403845 <gethostname+0x98>
  403805:	48 8b 55 e0          	mov    -0x20(%rbp),%rdx
  403809:	48 8b 45 e8          	mov    -0x18(%rbp),%rax
  40380d:	48 89 d6             	mov    %rdx,%rsi
  403810:	48 89 c7             	mov    %rax,%rdi
  403813:	e8 e8 c7 bf ff       	callq  0 <_ZZ7ttynameE3buf>
  403818:	89 45 fc             	mov    %eax,-0x4(%rbp)
  40381b:	83 7d fc 00          	cmpl   $0x0,-0x4(%rbp)
  40381f:	74 1f                	je     403840 <gethostname+0x93>
  403821:	64 48 8b 04 25 00 00 	mov    %fs:0x0,%rax
  403828:	00 00 
  40382a:	48 8d 80 f8 ff ff ff 	lea    -0x8(%rax),%rax
  403831:	48 89 c2             	mov    %rax,%rdx
  403834:	8b 45 fc             	mov    -0x4(%rbp),%eax
  403837:	89 02                	mov    %eax,(%rdx)
  403839:	b8 ff ff ff ff       	mov    $0xffffffff,%eax
  40383e:	eb 05                	jmp    403845 <gethostname+0x98>
  403840:	b8 00 00 00 00       	mov    $0x0,%eax
  403845:	c9                   	leaveq 
  403846:	c3                   	retq   

0000000000403847 <getlogin>:
  403847:	55                   	push   %rbp
  403848:	48 89 e5             	mov    %rsp,%rbp
  40384b:	48 8d 0d 56 08 02 00 	lea    0x20856(%rip),%rcx        # 4240a8 <_ZZ8getloginE8__func__>
  403852:	ba ef 00 00 00       	mov    $0xef,%edx
  403857:	48 8d 35 f2 f0 01 00 	lea    0x1f0f2(%rip),%rsi        # 422950 <_ZN3frgL6endlogE+0x2>
  40385e:	48 8d 3d 15 f1 01 00 	lea    0x1f115(%rip),%rdi        # 42297a <_ZN3frgL6endlogE+0x2c>
  403865:	e8 b5 67 00 00       	callq  40a01f <__ensure_fail>

000000000040386a <getlogin_r>:
  40386a:	55                   	push   %rbp
  40386b:	48 89 e5             	mov    %rsp,%rbp
  40386e:	48 83 ec 10          	sub    $0x10,%rsp
  403872:	48 89 7d f8          	mov    %rdi,-0x8(%rbp)
  403876:	48 89 75 f0          	mov    %rsi,-0x10(%rbp)
  40387a:	48 8d 0d 37 08 02 00 	lea    0x20837(%rip),%rcx        # 4240b8 <_ZZ10getlogin_rE8__func__>
  403881:	ba f3 00 00 00       	mov    $0xf3,%edx
  403886:	48 8d 35 c3 f0 01 00 	lea    0x1f0c3(%rip),%rsi        # 422950 <_ZN3frgL6endlogE+0x2>
  40388d:	48 8d 3d e6 f0 01 00 	lea    0x1f0e6(%rip),%rdi        # 42297a <_ZN3frgL6endlogE+0x2c>
  403894:	e8 86 67 00 00       	callq  40a01f <__ensure_fail>

0000000000403899 <getopt>:
  403899:	55                   	push   %rbp
  40389a:	48 89 e5             	mov    %rsp,%rbp
  40389d:	48 83 ec 30          	sub    $0x30,%rsp
  4038a1:	89 7d ec             	mov    %edi,-0x14(%rbp)
  4038a4:	48 89 75 e0          	mov    %rsi,-0x20(%rbp)
  4038a8:	48 89 55 d8          	mov    %rdx,-0x28(%rbp)
  4038ac:	48 c7 c0 58 4d 43 00 	mov    $0x434d58,%rax
  4038b3:	48 c7 00 00 00 00 00 	movq   $0x0,(%rax)
  4038ba:	48 8b 05 8f 14 03 00 	mov    0x3148f(%rip),%rax        # 434d50 <_ZL4scan>
  4038c1:	48 85 c0             	test   %rax,%rax
  4038c4:	74 12                	je     4038d8 <getopt+0x3f>
  4038c6:	48 8b 05 83 14 03 00 	mov    0x31483(%rip),%rax        # 434d50 <_ZL4scan>
  4038cd:	0f b6 00             	movzbl (%rax),%eax
  4038d0:	84 c0                	test   %al,%al
  4038d2:	0f 85 32 01 00 00    	jne    403a0a <getopt+0x171>
  4038d8:	48 c7 c0 c0 4c 43 00 	mov    $0x434cc0,%rax
  4038df:	8b 00                	mov    (%rax),%eax
  4038e1:	85 c0                	test   %eax,%eax
  4038e3:	75 15                	jne    4038fa <getopt+0x61>
  4038e5:	48 c7 c0 c0 4c 43 00 	mov    $0x434cc0,%rax
  4038ec:	8b 00                	mov    (%rax),%eax
  4038ee:	8d 50 01             	lea    0x1(%rax),%edx
  4038f1:	48 c7 c0 c0 4c 43 00 	mov    $0x434cc0,%rax
  4038f8:	89 10                	mov    %edx,(%rax)
  4038fa:	48 c7 c0 c0 4c 43 00 	mov    $0x434cc0,%rax
  403901:	8b 00                	mov    (%rax),%eax
  403903:	39 45 ec             	cmp    %eax,-0x14(%rbp)
  403906:	7e 4c                	jle    403954 <getopt+0xbb>
  403908:	48 c7 c0 c0 4c 43 00 	mov    $0x434cc0,%rax
  40390f:	8b 00                	mov    (%rax),%eax
  403911:	48 98                	cltq   
  403913:	48 8d 14 c5 00 00 00 	lea    0x0(,%rax,8),%rdx
  40391a:	00 
  40391b:	48 8b 45 e0          	mov    -0x20(%rbp),%rax
  40391f:	48 01 d0             	add    %rdx,%rax
  403922:	48 8b 00             	mov    (%rax),%rax
  403925:	0f b6 00             	movzbl (%rax),%eax
  403928:	3c 2d                	cmp    $0x2d,%al
  40392a:	75 28                	jne    403954 <getopt+0xbb>
  40392c:	48 c7 c0 c0 4c 43 00 	mov    $0x434cc0,%rax
  403933:	8b 00                	mov    (%rax),%eax
  403935:	48 98                	cltq   
  403937:	48 8d 14 c5 00 00 00 	lea    0x0(,%rax,8),%rdx
  40393e:	00 
  40393f:	48 8b 45 e0          	mov    -0x20(%rbp),%rax
  403943:	48 01 d0             	add    %rdx,%rax
  403946:	48 8b 00             	mov    (%rax),%rax
  403949:	48 83 c0 01          	add    $0x1,%rax
  40394d:	0f b6 00             	movzbl (%rax),%eax
  403950:	84 c0                	test   %al,%al
  403952:	75 0a                	jne    40395e <getopt+0xc5>
  403954:	b8 ff ff ff ff       	mov    $0xffffffff,%eax
  403959:	e9 da 01 00 00       	jmpq   403b38 <getopt+0x29f>
  40395e:	48 c7 c0 c0 4c 43 00 	mov    $0x434cc0,%rax
  403965:	8b 00                	mov    (%rax),%eax
  403967:	48 98                	cltq   
  403969:	48 8d 14 c5 00 00 00 	lea    0x0(,%rax,8),%rdx
  403970:	00 
  403971:	48 8b 45 e0          	mov    -0x20(%rbp),%rax
  403975:	48 01 d0             	add    %rdx,%rax
  403978:	48 8b 00             	mov    (%rax),%rax
  40397b:	48 83 c0 01          	add    $0x1,%rax
  40397f:	0f b6 00             	movzbl (%rax),%eax
  403982:	3c 2d                	cmp    $0x2d,%al
  403984:	75 47                	jne    4039cd <getopt+0x134>
  403986:	48 c7 c0 c0 4c 43 00 	mov    $0x434cc0,%rax
  40398d:	8b 00                	mov    (%rax),%eax
  40398f:	48 98                	cltq   
  403991:	48 8d 14 c5 00 00 00 	lea    0x0(,%rax,8),%rdx
  403998:	00 
  403999:	48 8b 45 e0          	mov    -0x20(%rbp),%rax
  40399d:	48 01 d0             	add    %rdx,%rax
  4039a0:	48 8b 00             	mov    (%rax),%rax
  4039a3:	48 83 c0 02          	add    $0x2,%rax
  4039a7:	0f b6 00             	movzbl (%rax),%eax
  4039aa:	84 c0                	test   %al,%al
  4039ac:	75 1f                	jne    4039cd <getopt+0x134>
  4039ae:	48 c7 c0 c0 4c 43 00 	mov    $0x434cc0,%rax
  4039b5:	8b 00                	mov    (%rax),%eax
  4039b7:	8d 50 01             	lea    0x1(%rax),%edx
  4039ba:	48 c7 c0 c0 4c 43 00 	mov    $0x434cc0,%rax
  4039c1:	89 10                	mov    %edx,(%rax)
  4039c3:	b8 ff ff ff ff       	mov    $0xffffffff,%eax
  4039c8:	e9 6b 01 00 00       	jmpq   403b38 <getopt+0x29f>
  4039cd:	48 c7 c0 c0 4c 43 00 	mov    $0x434cc0,%rax
  4039d4:	8b 00                	mov    (%rax),%eax
  4039d6:	48 98                	cltq   
  4039d8:	48 8d 14 c5 00 00 00 	lea    0x0(,%rax,8),%rdx
  4039df:	00 
  4039e0:	48 8b 45 e0          	mov    -0x20(%rbp),%rax
  4039e4:	48 01 d0             	add    %rdx,%rax
  4039e7:	48 8b 00             	mov    (%rax),%rax
  4039ea:	48 83 c0 01          	add    $0x1,%rax
  4039ee:	48 89 05 5b 13 03 00 	mov    %rax,0x3135b(%rip)        # 434d50 <_ZL4scan>
  4039f5:	48 c7 c0 c0 4c 43 00 	mov    $0x434cc0,%rax
  4039fc:	8b 00                	mov    (%rax),%eax
  4039fe:	8d 50 01             	lea    0x1(%rax),%edx
  403a01:	48 c7 c0 c0 4c 43 00 	mov    $0x434cc0,%rax
  403a08:	89 10                	mov    %edx,(%rax)
  403a0a:	48 8b 05 3f 13 03 00 	mov    0x3133f(%rip),%rax        # 434d50 <_ZL4scan>
  403a11:	48 8d 50 01          	lea    0x1(%rax),%rdx
  403a15:	48 89 15 34 13 03 00 	mov    %rdx,0x31334(%rip)        # 434d50 <_ZL4scan>
  403a1c:	0f b6 00             	movzbl (%rax),%eax
  403a1f:	88 45 ff             	mov    %al,-0x1(%rbp)
  403a22:	0f be 55 ff          	movsbl -0x1(%rbp),%edx
  403a26:	48 8b 45 d8          	mov    -0x28(%rbp),%rax
  403a2a:	89 d6                	mov    %edx,%esi
  403a2c:	48 89 c7             	mov    %rax,%rdi
  403a2f:	e8 d6 c9 01 00       	callq  42040a <strchr>
  403a34:	48 89 45 f0          	mov    %rax,-0x10(%rbp)
  403a38:	48 83 7d f0 00       	cmpq   $0x0,-0x10(%rbp)
  403a3d:	74 06                	je     403a45 <getopt+0x1ac>
  403a3f:	80 7d ff 3a          	cmpb   $0x3a,-0x1(%rbp)
  403a43:	75 33                	jne    403a78 <getopt+0x1df>
  403a45:	0f be 4d ff          	movsbl -0x1(%rbp),%ecx
  403a49:	48 8b 45 e0          	mov    -0x20(%rbp),%rax
  403a4d:	48 8b 10             	mov    (%rax),%rdx
  403a50:	48 c7 c0 d0 4c 43 00 	mov    $0x434cd0,%rax
  403a57:	48 8b 00             	mov    (%rax),%rax
  403a5a:	48 8d 35 4a f0 01 00 	lea    0x1f04a(%rip),%rsi        # 422aab <_ZN3frgL6endlogE+0x15d>
  403a61:	48 89 c7             	mov    %rax,%rdi
  403a64:	b8 00 00 00 00       	mov    $0x0,%eax
  403a69:	e8 f5 e5 00 00       	callq  412063 <fprintf>
  403a6e:	b8 3f 00 00 00       	mov    $0x3f,%eax
  403a73:	e9 c0 00 00 00       	jmpq   403b38 <getopt+0x29f>
  403a78:	48 83 45 f0 01       	addq   $0x1,-0x10(%rbp)
  403a7d:	48 8b 45 f0          	mov    -0x10(%rbp),%rax
  403a81:	0f b6 00             	movzbl (%rax),%eax
  403a84:	3c 3a                	cmp    $0x3a,%al
  403a86:	0f 85 a8 00 00 00    	jne    403b34 <getopt+0x29b>
  403a8c:	48 8b 05 bd 12 03 00 	mov    0x312bd(%rip),%rax        # 434d50 <_ZL4scan>
  403a93:	0f b6 00             	movzbl (%rax),%eax
  403a96:	84 c0                	test   %al,%al
  403a98:	74 1e                	je     403ab8 <getopt+0x21f>
  403a9a:	48 8b 15 af 12 03 00 	mov    0x312af(%rip),%rdx        # 434d50 <_ZL4scan>
  403aa1:	48 c7 c0 58 4d 43 00 	mov    $0x434d58,%rax
  403aa8:	48 89 10             	mov    %rdx,(%rax)
  403aab:	48 c7 05 9a 12 03 00 	movq   $0x0,0x3129a(%rip)        # 434d50 <_ZL4scan>
  403ab2:	00 00 00 00 
  403ab6:	eb 7c                	jmp    403b34 <getopt+0x29b>
  403ab8:	48 c7 c0 c0 4c 43 00 	mov    $0x434cc0,%rax
  403abf:	8b 00                	mov    (%rax),%eax
  403ac1:	39 45 ec             	cmp    %eax,-0x14(%rbp)
  403ac4:	7e 3e                	jle    403b04 <getopt+0x26b>
  403ac6:	48 c7 c0 c0 4c 43 00 	mov    $0x434cc0,%rax
  403acd:	8b 00                	mov    (%rax),%eax
  403acf:	48 98                	cltq   
  403ad1:	48 8d 14 c5 00 00 00 	lea    0x0(,%rax,8),%rdx
  403ad8:	00 
  403ad9:	48 8b 45 e0          	mov    -0x20(%rbp),%rax
  403add:	48 01 d0             	add    %rdx,%rax
  403ae0:	48 8b 10             	mov    (%rax),%rdx
  403ae3:	48 c7 c0 58 4d 43 00 	mov    $0x434d58,%rax
  403aea:	48 89 10             	mov    %rdx,(%rax)
  403aed:	48 c7 c0 c0 4c 43 00 	mov    $0x434cc0,%rax
  403af4:	8b 00                	mov    (%rax),%eax
  403af6:	8d 50 01             	lea    0x1(%rax),%edx
  403af9:	48 c7 c0 c0 4c 43 00 	mov    $0x434cc0,%rax
  403b00:	89 10                	mov    %edx,(%rax)
  403b02:	eb 30                	jmp    403b34 <getopt+0x29b>
  403b04:	0f be 4d ff          	movsbl -0x1(%rbp),%ecx
  403b08:	48 8b 45 e0          	mov    -0x20(%rbp),%rax
  403b0c:	48 8b 10             	mov    (%rax),%rdx
  403b0f:	48 c7 c0 d0 4c 43 00 	mov    $0x434cd0,%rax
  403b16:	48 8b 00             	mov    (%rax),%rax
  403b19:	48 8d 35 a8 ef 01 00 	lea    0x1efa8(%rip),%rsi        # 422ac8 <_ZN3frgL6endlogE+0x17a>
  403b20:	48 89 c7             	mov    %rax,%rdi
  403b23:	b8 00 00 00 00       	mov    $0x0,%eax
  403b28:	e8 36 e5 00 00       	callq  412063 <fprintf>
  403b2d:	b8 3a 00 00 00       	mov    $0x3a,%eax
  403b32:	eb 04                	jmp    403b38 <getopt+0x29f>
  403b34:	0f be 45 ff          	movsbl -0x1(%rbp),%eax
  403b38:	c9                   	leaveq 
  403b39:	c3                   	retq   

0000000000403b3a <getpgid>:
  403b3a:	55                   	push   %rbp
  403b3b:	48 89 e5             	mov    %rsp,%rbp
  403b3e:	48 83 ec 10          	sub    $0x10,%rsp
  403b42:	89 7d fc             	mov    %edi,-0x4(%rbp)
  403b45:	48 8d 0d 7c 05 02 00 	lea    0x2057c(%rip),%rcx        # 4240c8 <_ZZ7getpgidE8__func__>
  403b4c:	ba 2a 01 00 00       	mov    $0x12a,%edx
  403b51:	48 8d 35 f8 ed 01 00 	lea    0x1edf8(%rip),%rsi        # 422950 <_ZN3frgL6endlogE+0x2>
  403b58:	48 8d 3d 1b ee 01 00 	lea    0x1ee1b(%rip),%rdi        # 42297a <_ZN3frgL6endlogE+0x2c>
  403b5f:	e8 bb 64 00 00       	callq  40a01f <__ensure_fail>

0000000000403b64 <getpgrp>:
  403b64:	55                   	push   %rbp
  403b65:	48 89 e5             	mov    %rsp,%rbp
  403b68:	48 81 ec a0 00 00 00 	sub    $0xa0,%rsp
  403b6f:	48 c7 c0 00 00 00 00 	mov    $0x0,%rax
  403b76:	48 85 c0             	test   %rax,%rax
  403b79:	75 6c                	jne    403be7 <getpgrp+0x83>
  403b7b:	48 8d 0d 4e 05 02 00 	lea    0x2054e(%rip),%rcx        # 4240d0 <_ZZ7getpgrpE8__func__>
  403b82:	ba 2f 01 00 00       	mov    $0x12f,%edx
  403b87:	48 8d 35 c2 ed 01 00 	lea    0x1edc2(%rip),%rsi        # 422950 <_ZN3frgL6endlogE+0x2>
  403b8e:	48 8d 3d fb ed 01 00 	lea    0x1edfb(%rip),%rdi        # 422990 <_ZN3frgL6endlogE+0x42>
  403b95:	e8 91 65 00 00       	callq  40a12b <__ensure_warn>
  403b9a:	48 8d 85 60 ff ff ff 	lea    -0xa0(%rbp),%rax
  403ba1:	48 c7 c2 70 4f 43 00 	mov    $0x434f70,%rdx
  403ba8:	48 89 d6             	mov    %rdx,%rsi
  403bab:	48 89 c7             	mov    %rax,%rdi
  403bae:	e8 cb 17 00 00       	callq  40537e <_ZN3frg19stack_buffer_loggerIN5mlibc8InfoSinkELm128EEclEv>
  403bb3:	48 8d 85 60 ff ff ff 	lea    -0xa0(%rbp),%rax
  403bba:	48 8d 35 2f ef 01 00 	lea    0x1ef2f(%rip),%rsi        # 422af0 <_ZN3frgL6endlogE+0x1a2>
  403bc1:	48 89 c7             	mov    %rax,%rdi
  403bc4:	e8 eb 17 00 00       	callq  4053b4 <_ZN3frg19stack_buffer_loggerIN5mlibc8InfoSinkELm128EE4itemlsIPKcEERS4_T_>
  403bc9:	48 89 c7             	mov    %rax,%rdi
  403bcc:	e8 0d 18 00 00       	callq  4053de <_ZN3frg19stack_buffer_loggerIN5mlibc8InfoSinkELm128EE4itemlsENS_8endlog_tE>
  403bd1:	48 8d 85 60 ff ff ff 	lea    -0xa0(%rbp),%rax
  403bd8:	48 89 c7             	mov    %rax,%rdi
  403bdb:	e8 c8 17 00 00       	callq  4053a8 <_ZN3frg19stack_buffer_loggerIN5mlibc8InfoSinkELm128EE4itemD1Ev>
  403be0:	b8 00 00 00 00       	mov    $0x0,%eax
  403be5:	eb 06                	jmp    403bed <getpgrp+0x89>
  403be7:	e8 14 c4 bf ff       	callq  0 <_ZZ7ttynameE3buf>
  403bec:	90                   	nop
  403bed:	c9                   	leaveq 
  403bee:	c3                   	retq   

0000000000403bef <getsid>:
  403bef:	55                   	push   %rbp
  403bf0:	48 89 e5             	mov    %rsp,%rbp
  403bf3:	48 83 ec 10          	sub    $0x10,%rsp
  403bf7:	89 7d fc             	mov    %edi,-0x4(%rbp)
  403bfa:	48 8d 0d d7 04 02 00 	lea    0x204d7(%rip),%rcx        # 4240d8 <_ZZ6getsidE8__func__>
  403c01:	ba 36 01 00 00       	mov    $0x136,%edx
  403c06:	48 8d 35 43 ed 01 00 	lea    0x1ed43(%rip),%rsi        # 422950 <_ZN3frgL6endlogE+0x2>
  403c0d:	48 8d 3d 66 ed 01 00 	lea    0x1ed66(%rip),%rdi        # 42297a <_ZN3frgL6endlogE+0x2c>
  403c14:	e8 06 64 00 00       	callq  40a01f <__ensure_fail>

0000000000403c19 <lchown>:
  403c19:	55                   	push   %rbp
  403c1a:	48 89 e5             	mov    %rsp,%rbp
  403c1d:	48 83 ec 10          	sub    $0x10,%rsp
  403c21:	48 89 7d f8          	mov    %rdi,-0x8(%rbp)
  403c25:	89 75 f4             	mov    %esi,-0xc(%rbp)
  403c28:	89 55 f0             	mov    %edx,-0x10(%rbp)
  403c2b:	48 8d 0d ad 04 02 00 	lea    0x204ad(%rip),%rcx        # 4240df <_ZZ6lchownE8__func__>
  403c32:	ba 3a 01 00 00       	mov    $0x13a,%edx
  403c37:	48 8d 35 12 ed 01 00 	lea    0x1ed12(%rip),%rsi        # 422950 <_ZN3frgL6endlogE+0x2>
  403c3e:	48 8d 3d 35 ed 01 00 	lea    0x1ed35(%rip),%rdi        # 42297a <_ZN3frgL6endlogE+0x2c>
  403c45:	e8 d5 63 00 00       	callq  40a01f <__ensure_fail>

0000000000403c4a <link>:
  403c4a:	55                   	push   %rbp
  403c4b:	48 89 e5             	mov    %rsp,%rbp
  403c4e:	48 83 ec 10          	sub    $0x10,%rsp
  403c52:	48 89 7d f8          	mov    %rdi,-0x8(%rbp)
  403c56:	48 89 75 f0          	mov    %rsi,-0x10(%rbp)
  403c5a:	48 8d 0d 85 04 02 00 	lea    0x20485(%rip),%rcx        # 4240e6 <_ZZ4linkE8__func__>
  403c61:	ba 3e 01 00 00       	mov    $0x13e,%edx
  403c66:	48 8d 35 e3 ec 01 00 	lea    0x1ece3(%rip),%rsi        # 422950 <_ZN3frgL6endlogE+0x2>
  403c6d:	48 8d 3d 06 ed 01 00 	lea    0x1ed06(%rip),%rdi        # 42297a <_ZN3frgL6endlogE+0x2c>
  403c74:	e8 a6 63 00 00       	callq  40a01f <__ensure_fail>

0000000000403c79 <linkat>:
  403c79:	55                   	push   %rbp
  403c7a:	48 89 e5             	mov    %rsp,%rbp
  403c7d:	48 83 ec 20          	sub    $0x20,%rsp
  403c81:	89 7d fc             	mov    %edi,-0x4(%rbp)
  403c84:	48 89 75 f0          	mov    %rsi,-0x10(%rbp)
  403c88:	89 55 f8             	mov    %edx,-0x8(%rbp)
  403c8b:	48 89 4d e8          	mov    %rcx,-0x18(%rbp)
  403c8f:	44 89 45 e4          	mov    %r8d,-0x1c(%rbp)
  403c93:	48 8d 0d 51 04 02 00 	lea    0x20451(%rip),%rcx        # 4240eb <_ZZ6linkatE8__func__>
  403c9a:	ba 42 01 00 00       	mov    $0x142,%edx
  403c9f:	48 8d 35 aa ec 01 00 	lea    0x1ecaa(%rip),%rsi        # 422950 <_ZN3frgL6endlogE+0x2>
  403ca6:	48 8d 3d cd ec 01 00 	lea    0x1eccd(%rip),%rdi        # 42297a <_ZN3frgL6endlogE+0x2c>
  403cad:	e8 6d 63 00 00       	callq  40a01f <__ensure_fail>

0000000000403cb2 <lockf>:
  403cb2:	55                   	push   %rbp
  403cb3:	48 89 e5             	mov    %rsp,%rbp
  403cb6:	48 83 ec 10          	sub    $0x10,%rsp
  403cba:	89 7d fc             	mov    %edi,-0x4(%rbp)
  403cbd:	89 75 f8             	mov    %esi,-0x8(%rbp)
  403cc0:	48 89 55 f0          	mov    %rdx,-0x10(%rbp)
  403cc4:	48 8d 0d 27 04 02 00 	lea    0x20427(%rip),%rcx        # 4240f2 <_ZZ5lockfE8__func__>
  403ccb:	ba 46 01 00 00       	mov    $0x146,%edx
  403cd0:	48 8d 35 79 ec 01 00 	lea    0x1ec79(%rip),%rsi        # 422950 <_ZN3frgL6endlogE+0x2>
  403cd7:	48 8d 3d 9c ec 01 00 	lea    0x1ec9c(%rip),%rdi        # 42297a <_ZN3frgL6endlogE+0x2c>
  403cde:	e8 3c 63 00 00       	callq  40a01f <__ensure_fail>

0000000000403ce3 <nice>:
  403ce3:	55                   	push   %rbp
  403ce4:	48 89 e5             	mov    %rsp,%rbp
  403ce7:	48 83 ec 10          	sub    $0x10,%rsp
  403ceb:	89 7d fc             	mov    %edi,-0x4(%rbp)
  403cee:	48 8d 0d 03 04 02 00 	lea    0x20403(%rip),%rcx        # 4240f8 <_ZZ4niceE8__func__>
  403cf5:	ba 4a 01 00 00       	mov    $0x14a,%edx
  403cfa:	48 8d 35 4f ec 01 00 	lea    0x1ec4f(%rip),%rsi        # 422950 <_ZN3frgL6endlogE+0x2>
  403d01:	48 8d 3d 72 ec 01 00 	lea    0x1ec72(%rip),%rdi        # 42297a <_ZN3frgL6endlogE+0x2c>
  403d08:	e8 12 63 00 00       	callq  40a01f <__ensure_fail>

0000000000403d0d <pathconf>:
  403d0d:	55                   	push   %rbp
  403d0e:	48 89 e5             	mov    %rsp,%rbp
  403d11:	48 83 ec 10          	sub    $0x10,%rsp
  403d15:	48 89 7d f8          	mov    %rdi,-0x8(%rbp)
  403d19:	89 75 f4             	mov    %esi,-0xc(%rbp)
  403d1c:	48 8d 0d dd 03 02 00 	lea    0x203dd(%rip),%rcx        # 424100 <_ZZ8pathconfE8__func__>
  403d23:	ba 4e 01 00 00       	mov    $0x14e,%edx
  403d28:	48 8d 35 21 ec 01 00 	lea    0x1ec21(%rip),%rsi        # 422950 <_ZN3frgL6endlogE+0x2>
  403d2f:	48 8d 3d 44 ec 01 00 	lea    0x1ec44(%rip),%rdi        # 42297a <_ZN3frgL6endlogE+0x2c>
  403d36:	e8 e4 62 00 00       	callq  40a01f <__ensure_fail>

0000000000403d3b <pause>:
  403d3b:	55                   	push   %rbp
  403d3c:	48 89 e5             	mov    %rsp,%rbp
  403d3f:	48 8d 0d c3 03 02 00 	lea    0x203c3(%rip),%rcx        # 424109 <_ZZ5pauseE8__func__>
  403d46:	ba 52 01 00 00       	mov    $0x152,%edx
  403d4b:	48 8d 35 fe eb 01 00 	lea    0x1ebfe(%rip),%rsi        # 422950 <_ZN3frgL6endlogE+0x2>
  403d52:	48 8d 3d 21 ec 01 00 	lea    0x1ec21(%rip),%rdi        # 42297a <_ZN3frgL6endlogE+0x2c>
  403d59:	e8 c1 62 00 00       	callq  40a01f <__ensure_fail>

0000000000403d5e <pipe>:
  403d5e:	55                   	push   %rbp
  403d5f:	48 89 e5             	mov    %rsp,%rbp
  403d62:	48 83 ec 20          	sub    $0x20,%rsp
  403d66:	48 89 7d e8          	mov    %rdi,-0x18(%rbp)
  403d6a:	48 c7 c0 00 00 00 00 	mov    $0x0,%rax
  403d71:	48 85 c0             	test   %rax,%rax
  403d74:	75 3c                	jne    403db2 <pipe+0x54>
  403d76:	48 8d 0d 92 03 02 00 	lea    0x20392(%rip),%rcx        # 42410f <_ZZ4pipeE8__func__>
  403d7d:	ba 58 01 00 00       	mov    $0x158,%edx
  403d82:	48 8d 35 c7 eb 01 00 	lea    0x1ebc7(%rip),%rsi        # 422950 <_ZN3frgL6endlogE+0x2>
  403d89:	48 8d 3d 00 ec 01 00 	lea    0x1ec00(%rip),%rdi        # 422990 <_ZN3frgL6endlogE+0x42>
  403d90:	e8 96 63 00 00       	callq  40a12b <__ensure_warn>
  403d95:	64 48 8b 04 25 00 00 	mov    %fs:0x0,%rax
  403d9c:	00 00 
  403d9e:	48 8d 80 f8 ff ff ff 	lea    -0x8(%rax),%rax
  403da5:	c7 00 1b 04 00 00    	movl   $0x41b,(%rax)
  403dab:	b8 ff ff ff ff       	mov    $0xffffffff,%eax
  403db0:	eb 3e                	jmp    403df0 <pipe+0x92>
  403db2:	48 8b 45 e8          	mov    -0x18(%rbp),%rax
  403db6:	be 00 00 00 00       	mov    $0x0,%esi
  403dbb:	48 89 c7             	mov    %rax,%rdi
  403dbe:	e8 3d c2 bf ff       	callq  0 <_ZZ7ttynameE3buf>
  403dc3:	89 45 fc             	mov    %eax,-0x4(%rbp)
  403dc6:	83 7d fc 00          	cmpl   $0x0,-0x4(%rbp)
  403dca:	74 1f                	je     403deb <pipe+0x8d>
  403dcc:	64 48 8b 04 25 00 00 	mov    %fs:0x0,%rax
  403dd3:	00 00 
  403dd5:	48 8d 80 f8 ff ff ff 	lea    -0x8(%rax),%rax
  403ddc:	48 89 c2             	mov    %rax,%rdx
  403ddf:	8b 45 fc             	mov    -0x4(%rbp),%eax
  403de2:	89 02                	mov    %eax,(%rdx)
  403de4:	b8 ff ff ff ff       	mov    $0xffffffff,%eax
  403de9:	eb 05                	jmp    403df0 <pipe+0x92>
  403deb:	b8 00 00 00 00       	mov    $0x0,%eax
  403df0:	c9                   	leaveq 
  403df1:	c3                   	retq   

0000000000403df2 <pipe2>:
  403df2:	55                   	push   %rbp
  403df3:	48 89 e5             	mov    %rsp,%rbp
  403df6:	48 83 ec 20          	sub    $0x20,%rsp
  403dfa:	48 89 7d e8          	mov    %rdi,-0x18(%rbp)
  403dfe:	89 75 e4             	mov    %esi,-0x1c(%rbp)
  403e01:	48 c7 c0 00 00 00 00 	mov    $0x0,%rax
  403e08:	48 85 c0             	test   %rax,%rax
  403e0b:	75 3c                	jne    403e49 <pipe2+0x57>
  403e0d:	48 8d 0d 00 03 02 00 	lea    0x20300(%rip),%rcx        # 424114 <_ZZ5pipe2E8__func__>
  403e14:	ba 65 01 00 00       	mov    $0x165,%edx
  403e19:	48 8d 35 30 eb 01 00 	lea    0x1eb30(%rip),%rsi        # 422950 <_ZN3frgL6endlogE+0x2>
  403e20:	48 8d 3d 69 eb 01 00 	lea    0x1eb69(%rip),%rdi        # 422990 <_ZN3frgL6endlogE+0x42>
  403e27:	e8 ff 62 00 00       	callq  40a12b <__ensure_warn>
  403e2c:	64 48 8b 04 25 00 00 	mov    %fs:0x0,%rax
  403e33:	00 00 
  403e35:	48 8d 80 f8 ff ff ff 	lea    -0x8(%rax),%rax
  403e3c:	c7 00 1b 04 00 00    	movl   $0x41b,(%rax)
  403e42:	b8 ff ff ff ff       	mov    $0xffffffff,%eax
  403e47:	eb 3e                	jmp    403e87 <pipe2+0x95>
  403e49:	8b 55 e4             	mov    -0x1c(%rbp),%edx
  403e4c:	48 8b 45 e8          	mov    -0x18(%rbp),%rax
  403e50:	89 d6                	mov    %edx,%esi
  403e52:	48 89 c7             	mov    %rax,%rdi
  403e55:	e8 a6 c1 bf ff       	callq  0 <_ZZ7ttynameE3buf>
  403e5a:	89 45 fc             	mov    %eax,-0x4(%rbp)
  403e5d:	83 7d fc 00          	cmpl   $0x0,-0x4(%rbp)
  403e61:	74 1f                	je     403e82 <pipe2+0x90>
  403e63:	64 48 8b 04 25 00 00 	mov    %fs:0x0,%rax
  403e6a:	00 00 
  403e6c:	48 8d 80 f8 ff ff ff 	lea    -0x8(%rax),%rax
  403e73:	48 89 c2             	mov    %rax,%rdx
  403e76:	8b 45 fc             	mov    -0x4(%rbp),%eax
  403e79:	89 02                	mov    %eax,(%rdx)
  403e7b:	b8 ff ff ff ff       	mov    $0xffffffff,%eax
  403e80:	eb 05                	jmp    403e87 <pipe2+0x95>
  403e82:	b8 00 00 00 00       	mov    $0x0,%eax
  403e87:	c9                   	leaveq 
  403e88:	c3                   	retq   

0000000000403e89 <pread>:
  403e89:	55                   	push   %rbp
  403e8a:	48 89 e5             	mov    %rsp,%rbp
  403e8d:	48 83 ec 20          	sub    $0x20,%rsp
  403e91:	89 7d fc             	mov    %edi,-0x4(%rbp)
  403e94:	48 89 75 f0          	mov    %rsi,-0x10(%rbp)
  403e98:	48 89 55 e8          	mov    %rdx,-0x18(%rbp)
  403e9c:	48 89 4d e0          	mov    %rcx,-0x20(%rbp)
  403ea0:	48 8d 0d 73 02 02 00 	lea    0x20273(%rip),%rcx        # 42411a <_ZZ5preadE8__func__>
  403ea7:	ba 71 01 00 00       	mov    $0x171,%edx
  403eac:	48 8d 35 9d ea 01 00 	lea    0x1ea9d(%rip),%rsi        # 422950 <_ZN3frgL6endlogE+0x2>
  403eb3:	48 8d 3d c0 ea 01 00 	lea    0x1eac0(%rip),%rdi        # 42297a <_ZN3frgL6endlogE+0x2c>
  403eba:	e8 60 61 00 00       	callq  40a01f <__ensure_fail>

0000000000403ebf <pwrite>:
  403ebf:	55                   	push   %rbp
  403ec0:	48 89 e5             	mov    %rsp,%rbp
  403ec3:	48 83 ec 20          	sub    $0x20,%rsp
  403ec7:	89 7d fc             	mov    %edi,-0x4(%rbp)
  403eca:	48 89 75 f0          	mov    %rsi,-0x10(%rbp)
  403ece:	48 89 55 e8          	mov    %rdx,-0x18(%rbp)
  403ed2:	48 89 4d e0          	mov    %rcx,-0x20(%rbp)
  403ed6:	48 8d 0d 43 02 02 00 	lea    0x20243(%rip),%rcx        # 424120 <_ZZ6pwriteE8__func__>
  403edd:	ba 75 01 00 00       	mov    $0x175,%edx
  403ee2:	48 8d 35 67 ea 01 00 	lea    0x1ea67(%rip),%rsi        # 422950 <_ZN3frgL6endlogE+0x2>
  403ee9:	48 8d 3d 8a ea 01 00 	lea    0x1ea8a(%rip),%rdi        # 42297a <_ZN3frgL6endlogE+0x2c>
  403ef0:	e8 2a 61 00 00       	callq  40a01f <__ensure_fail>

0000000000403ef5 <readlink>:
  403ef5:	55                   	push   %rbp
  403ef6:	48 89 e5             	mov    %rsp,%rbp
  403ef9:	48 83 ec 30          	sub    $0x30,%rsp
  403efd:	48 89 7d e8          	mov    %rdi,-0x18(%rbp)
  403f01:	48 89 75 e0          	mov    %rsi,-0x20(%rbp)
  403f05:	48 89 55 d8          	mov    %rdx,-0x28(%rbp)
  403f09:	48 c7 c0 00 00 00 00 	mov    $0x0,%rax
  403f10:	48 85 c0             	test   %rax,%rax
  403f13:	75 3e                	jne    403f53 <readlink+0x5e>
  403f15:	48 8d 0d 0c 02 02 00 	lea    0x2020c(%rip),%rcx        # 424128 <_ZZ8readlinkE8__func__>
  403f1c:	ba 7b 01 00 00       	mov    $0x17b,%edx
  403f21:	48 8d 35 28 ea 01 00 	lea    0x1ea28(%rip),%rsi        # 422950 <_ZN3frgL6endlogE+0x2>
  403f28:	48 8d 3d 61 ea 01 00 	lea    0x1ea61(%rip),%rdi        # 422990 <_ZN3frgL6endlogE+0x42>
  403f2f:	e8 f7 61 00 00       	callq  40a12b <__ensure_warn>
  403f34:	64 48 8b 04 25 00 00 	mov    %fs:0x0,%rax
  403f3b:	00 00 
  403f3d:	48 8d 80 f8 ff ff ff 	lea    -0x8(%rax),%rax
  403f44:	c7 00 1b 04 00 00    	movl   $0x41b,(%rax)
  403f4a:	48 c7 c0 ff ff ff ff 	mov    $0xffffffffffffffff,%rax
  403f51:	eb 46                	jmp    403f99 <readlink+0xa4>
  403f53:	48 8d 4d f0          	lea    -0x10(%rbp),%rcx
  403f57:	48 8b 55 d8          	mov    -0x28(%rbp),%rdx
  403f5b:	48 8b 75 e0          	mov    -0x20(%rbp),%rsi
  403f5f:	48 8b 45 e8          	mov    -0x18(%rbp),%rax
  403f63:	48 89 c7             	mov    %rax,%rdi
  403f66:	e8 95 c0 bf ff       	callq  0 <_ZZ7ttynameE3buf>
  403f6b:	89 45 fc             	mov    %eax,-0x4(%rbp)
  403f6e:	83 7d fc 00          	cmpl   $0x0,-0x4(%rbp)
  403f72:	74 21                	je     403f95 <readlink+0xa0>
  403f74:	64 48 8b 04 25 00 00 	mov    %fs:0x0,%rax
  403f7b:	00 00 
  403f7d:	48 8d 80 f8 ff ff ff 	lea    -0x8(%rax),%rax
  403f84:	48 89 c2             	mov    %rax,%rdx
  403f87:	8b 45 fc             	mov    -0x4(%rbp),%eax
  403f8a:	89 02                	mov    %eax,(%rdx)
  403f8c:	48 c7 c0 ff ff ff ff 	mov    $0xffffffffffffffff,%rax
  403f93:	eb 04                	jmp    403f99 <readlink+0xa4>
  403f95:	48 8b 45 f0          	mov    -0x10(%rbp),%rax
  403f99:	c9                   	leaveq 
  403f9a:	c3                   	retq   

0000000000403f9b <readlinkat>:
  403f9b:	55                   	push   %rbp
  403f9c:	48 89 e5             	mov    %rsp,%rbp
  403f9f:	48 83 ec 20          	sub    $0x20,%rsp
  403fa3:	89 7d fc             	mov    %edi,-0x4(%rbp)
  403fa6:	48 89 75 f0          	mov    %rsi,-0x10(%rbp)
  403faa:	48 89 55 e8          	mov    %rdx,-0x18(%rbp)
  403fae:	48 89 4d e0          	mov    %rcx,-0x20(%rbp)
  403fb2:	48 8d 0d 7f 01 02 00 	lea    0x2017f(%rip),%rcx        # 424138 <_ZZ10readlinkatE8__func__>
  403fb9:	ba 86 01 00 00       	mov    $0x186,%edx
  403fbe:	48 8d 35 8b e9 01 00 	lea    0x1e98b(%rip),%rsi        # 422950 <_ZN3frgL6endlogE+0x2>
  403fc5:	48 8d 3d ae e9 01 00 	lea    0x1e9ae(%rip),%rdi        # 42297a <_ZN3frgL6endlogE+0x2c>
  403fcc:	e8 4e 60 00 00       	callq  40a01f <__ensure_fail>

0000000000403fd1 <rmdir>:
  403fd1:	55                   	push   %rbp
  403fd2:	48 89 e5             	mov    %rsp,%rbp
  403fd5:	48 83 ec 10          	sub    $0x10,%rsp
  403fd9:	48 89 7d f8          	mov    %rdi,-0x8(%rbp)
  403fdd:	48 8d 0d 5f 01 02 00 	lea    0x2015f(%rip),%rcx        # 424143 <_ZZ5rmdirE8__func__>
  403fe4:	ba 8a 01 00 00       	mov    $0x18a,%edx
  403fe9:	48 8d 35 60 e9 01 00 	lea    0x1e960(%rip),%rsi        # 422950 <_ZN3frgL6endlogE+0x2>
  403ff0:	48 8d 3d 83 e9 01 00 	lea    0x1e983(%rip),%rdi        # 42297a <_ZN3frgL6endlogE+0x2c>
  403ff7:	e8 23 60 00 00       	callq  40a01f <__ensure_fail>

0000000000403ffc <setegid>:
  403ffc:	55                   	push   %rbp
  403ffd:	48 89 e5             	mov    %rsp,%rbp
  404000:	48 83 ec 10          	sub    $0x10,%rsp
  404004:	89 7d fc             	mov    %edi,-0x4(%rbp)
  404007:	48 8d 0d 42 01 02 00 	lea    0x20142(%rip),%rcx        # 424150 <_ZZ7setegidE8__func__>
  40400e:	ba 8e 01 00 00       	mov    $0x18e,%edx
  404013:	48 8d 35 36 e9 01 00 	lea    0x1e936(%rip),%rsi        # 422950 <_ZN3frgL6endlogE+0x2>
  40401a:	48 8d 3d 59 e9 01 00 	lea    0x1e959(%rip),%rdi        # 42297a <_ZN3frgL6endlogE+0x2c>
  404021:	e8 f9 5f 00 00       	callq  40a01f <__ensure_fail>

0000000000404026 <seteuid>:
  404026:	55                   	push   %rbp
  404027:	48 89 e5             	mov    %rsp,%rbp
  40402a:	48 81 ec b0 00 00 00 	sub    $0xb0,%rsp
  404031:	89 bd 5c ff ff ff    	mov    %edi,-0xa4(%rbp)
  404037:	48 8d 85 60 ff ff ff 	lea    -0xa0(%rbp),%rax
  40403e:	48 c7 c2 70 4f 43 00 	mov    $0x434f70,%rdx
  404045:	48 89 d6             	mov    %rdx,%rsi
  404048:	48 89 c7             	mov    %rax,%rdi
  40404b:	e8 2e 13 00 00       	callq  40537e <_ZN3frg19stack_buffer_loggerIN5mlibc8InfoSinkELm128EEclEv>
  404050:	48 8d 85 60 ff ff ff 	lea    -0xa0(%rbp),%rax
  404057:	48 8d 35 d2 ea 01 00 	lea    0x1ead2(%rip),%rsi        # 422b30 <_ZN3frgL6endlogE+0x1e2>
  40405e:	48 89 c7             	mov    %rax,%rdi
