
init.lef:     file format elf64-x86-64


Disassembly of section .init:

00000000004000b0 <_init>:
  4000b0:	e8 2b 01 00 00       	callq  4001e0 <frame_dummy>
  4000b5:	e8 16 18 00 00       	callq  4018d0 <__do_global_ctors_aux>
  4000ba:	c2 00 00             	retq   $0x0

Disassembly of section .text:

00000000004000c0 <_start>:
  4000c0:	48 c7 c5 00 00 00 00 	mov    $0x0,%rbp
  4000c7:	55                   	push   %rbp
  4000c8:	55                   	push   %rbp
  4000c9:	48 89 e5             	mov    %rsp,%rbp
  4000cc:	e8 df ff ff ff       	callq  4000b0 <_init>
  4000d1:	e8 37 01 00 00       	callq  40020d <main>

00000000004000d6 <hang>:
  4000d6:	f4                   	hlt    
  4000d7:	eb fd                	jmp    4000d6 <hang>
  4000d9:	0f 1f 80 00 00 00 00 	nopl   0x0(%rax)

00000000004000e0 <deregister_tm_clones>:
  4000e0:	b8 48 2a 40 00       	mov    $0x402a48,%eax
  4000e5:	48 3d 48 2a 40 00    	cmp    $0x402a48,%rax
  4000eb:	74 13                	je     400100 <deregister_tm_clones+0x20>
  4000ed:	b8 00 00 00 00       	mov    $0x0,%eax
  4000f2:	48 85 c0             	test   %rax,%rax
  4000f5:	74 09                	je     400100 <deregister_tm_clones+0x20>
  4000f7:	bf 48 2a 40 00       	mov    $0x402a48,%edi
  4000fc:	ff e0                	jmpq   *%rax
  4000fe:	66 90                	xchg   %ax,%ax
  400100:	c3                   	retq   
  400101:	66 66 2e 0f 1f 84 00 	data16 nopw %cs:0x0(%rax,%rax,1)
  400108:	00 00 00 00 
  40010c:	0f 1f 40 00          	nopl   0x0(%rax)

0000000000400110 <register_tm_clones>:
  400110:	be 48 2a 40 00       	mov    $0x402a48,%esi
  400115:	48 81 ee 48 2a 40 00 	sub    $0x402a48,%rsi
  40011c:	48 c1 fe 03          	sar    $0x3,%rsi
  400120:	48 89 f0             	mov    %rsi,%rax
  400123:	48 c1 e8 3f          	shr    $0x3f,%rax
  400127:	48 01 c6             	add    %rax,%rsi
  40012a:	48 d1 fe             	sar    %rsi
  40012d:	74 11                	je     400140 <register_tm_clones+0x30>
  40012f:	b8 00 00 00 00       	mov    $0x0,%eax
  400134:	48 85 c0             	test   %rax,%rax
  400137:	74 07                	je     400140 <register_tm_clones+0x30>
  400139:	bf 48 2a 40 00       	mov    $0x402a48,%edi
  40013e:	ff e0                	jmpq   *%rax
  400140:	c3                   	retq   
  400141:	66 66 2e 0f 1f 84 00 	data16 nopw %cs:0x0(%rax,%rax,1)
  400148:	00 00 00 00 
  40014c:	0f 1f 40 00          	nopl   0x0(%rax)

0000000000400150 <__do_global_dtors_aux>:
  400150:	80 3d 09 29 00 00 00 	cmpb   $0x0,0x2909(%rip)        # 402a60 <completed.4699>
  400157:	75 77                	jne    4001d0 <__do_global_dtors_aux+0x80>
  400159:	55                   	push   %rbp
  40015a:	48 8b 05 07 29 00 00 	mov    0x2907(%rip),%rax        # 402a68 <dtor_idx.4701>
  400161:	48 89 e5             	mov    %rsp,%rbp
  400164:	41 54                	push   %r12
  400166:	41 bc 10 20 40 00    	mov    $0x402010,%r12d
  40016c:	53                   	push   %rbx
  40016d:	bb 18 20 40 00       	mov    $0x402018,%ebx
  400172:	48 81 eb 10 20 40 00 	sub    $0x402010,%rbx
  400179:	48 c1 fb 03          	sar    $0x3,%rbx
  40017d:	48 83 eb 01          	sub    $0x1,%rbx
  400181:	48 39 d8             	cmp    %rbx,%rax
  400184:	73 25                	jae    4001ab <__do_global_dtors_aux+0x5b>
  400186:	66 2e 0f 1f 84 00 00 	nopw   %cs:0x0(%rax,%rax,1)
  40018d:	00 00 00 
  400190:	48 83 c0 01          	add    $0x1,%rax
  400194:	48 89 05 cd 28 00 00 	mov    %rax,0x28cd(%rip)        # 402a68 <dtor_idx.4701>
  40019b:	41 ff 14 c4          	callq  *(%r12,%rax,8)
  40019f:	48 8b 05 c2 28 00 00 	mov    0x28c2(%rip),%rax        # 402a68 <dtor_idx.4701>
  4001a6:	48 39 d8             	cmp    %rbx,%rax
  4001a9:	72 e5                	jb     400190 <__do_global_dtors_aux+0x40>
  4001ab:	e8 30 ff ff ff       	callq  4000e0 <deregister_tm_clones>
  4001b0:	b8 00 00 00 00       	mov    $0x0,%eax
  4001b5:	48 85 c0             	test   %rax,%rax
  4001b8:	74 0a                	je     4001c4 <__do_global_dtors_aux+0x74>
  4001ba:	bf 28 19 40 00       	mov    $0x401928,%edi
  4001bf:	e8 3c fe bf ff       	callq  0 <_init-0x4000b0>
  4001c4:	5b                   	pop    %rbx
  4001c5:	41 5c                	pop    %r12
  4001c7:	c6 05 92 28 00 00 01 	movb   $0x1,0x2892(%rip)        # 402a60 <completed.4699>
  4001ce:	5d                   	pop    %rbp
  4001cf:	c3                   	retq   
  4001d0:	c3                   	retq   
  4001d1:	66 66 2e 0f 1f 84 00 	data16 nopw %cs:0x0(%rax,%rax,1)
  4001d8:	00 00 00 00 
  4001dc:	0f 1f 40 00          	nopl   0x0(%rax)

00000000004001e0 <frame_dummy>:
  4001e0:	b8 00 00 00 00       	mov    $0x0,%eax
  4001e5:	48 85 c0             	test   %rax,%rax
  4001e8:	74 1e                	je     400208 <frame_dummy+0x28>
  4001ea:	55                   	push   %rbp
  4001eb:	be 80 2a 40 00       	mov    $0x402a80,%esi
  4001f0:	bf 28 19 40 00       	mov    $0x401928,%edi
  4001f5:	48 89 e5             	mov    %rsp,%rbp
  4001f8:	e8 03 fe bf ff       	callq  0 <_init-0x4000b0>
  4001fd:	5d                   	pop    %rbp
  4001fe:	e9 0d ff ff ff       	jmpq   400110 <register_tm_clones>
  400203:	0f 1f 44 00 00       	nopl   0x0(%rax,%rax,1)
  400208:	e9 03 ff ff ff       	jmpq   400110 <register_tm_clones>

000000000040020d <main>:
  40020d:	55                   	push   %rbp
  40020e:	48 89 e5             	mov    %rsp,%rbp
  400211:	48 83 ec 20          	sub    $0x20,%rsp
  400215:	bf b8 2a 40 00       	mov    $0x402ab8,%edi
  40021a:	e8 51 0d 00 00       	callq  400f70 <lemon_map_fb>
  40021f:	48 89 05 8a 28 00 00 	mov    %rax,0x288a(%rip)        # 402ab0 <fb>
  400226:	bf 28 00 00 00       	mov    $0x28,%edi
  40022b:	e8 70 0e 00 00       	callq  4010a0 <malloc>
  400230:	48 89 45 f0          	mov    %rax,-0x10(%rbp)
  400234:	48 8b 45 f0          	mov    -0x10(%rbp),%rax
  400238:	c7 40 04 00 00 00 00 	movl   $0x0,0x4(%rax)
  40023f:	48 8b 45 f0          	mov    -0x10(%rbp),%rax
  400243:	8b 50 04             	mov    0x4(%rax),%edx
  400246:	48 8b 45 f0          	mov    -0x10(%rbp),%rax
  40024a:	89 10                	mov    %edx,(%rax)
  40024c:	8b 05 66 28 00 00    	mov    0x2866(%rip),%eax        # 402ab8 <fbInfo>
  400252:	89 c2                	mov    %eax,%edx
  400254:	48 8b 45 f0          	mov    -0x10(%rbp),%rax
  400258:	89 50 08             	mov    %edx,0x8(%rax)
  40025b:	8b 05 5b 28 00 00    	mov    0x285b(%rip),%eax        # 402abc <fbInfo+0x4>
  400261:	89 c2                	mov    %eax,%edx
  400263:	48 8b 45 f0          	mov    -0x10(%rbp),%rax
  400267:	89 50 0c             	mov    %edx,0xc(%rax)
  40026a:	8b 05 52 28 00 00    	mov    0x2852(%rip),%eax        # 402ac2 <fbInfo+0xa>
  400270:	89 c2                	mov    %eax,%edx
  400272:	48 8b 45 f0          	mov    -0x10(%rbp),%rax
  400276:	89 50 10             	mov    %edx,0x10(%rax)
  400279:	0f b7 05 40 28 00 00 	movzwl 0x2840(%rip),%eax        # 402ac0 <fbInfo+0x8>
  400280:	89 c2                	mov    %eax,%edx
  400282:	48 8b 45 f0          	mov    -0x10(%rbp),%rax
  400286:	88 50 14             	mov    %dl,0x14(%rax)
  400289:	c7 45 fc 00 00 00 00 	movl   $0x0,-0x4(%rbp)
  400290:	8b 15 26 28 00 00    	mov    0x2826(%rip),%edx        # 402abc <fbInfo+0x4>
  400296:	8b 05 26 28 00 00    	mov    0x2826(%rip),%eax        # 402ac2 <fbInfo+0xa>
  40029c:	0f af d0             	imul   %eax,%edx
  40029f:	8b 45 fc             	mov    -0x4(%rbp),%eax
  4002a2:	39 c2                	cmp    %eax,%edx
  4002a4:	76 18                	jbe    4002be <main+0xb1>
  4002a6:	48 8b 15 03 28 00 00 	mov    0x2803(%rip),%rdx        # 402ab0 <fb>
  4002ad:	8b 45 fc             	mov    -0x4(%rbp),%eax
  4002b0:	48 98                	cltq   
  4002b2:	48 01 d0             	add    %rdx,%rax
  4002b5:	c6 00 00             	movb   $0x0,(%rax)
  4002b8:	83 45 fc 01          	addl   $0x1,-0x4(%rbp)
  4002bc:	eb d2                	jmp    400290 <main+0x83>
  4002be:	c7 45 f8 00 00 00 00 	movl   $0x0,-0x8(%rbp)
  4002c5:	48 8b 45 f0          	mov    -0x10(%rbp),%rax
  4002c9:	8b 50 0c             	mov    0xc(%rax),%edx
  4002cc:	48 8b 45 f0          	mov    -0x10(%rbp),%rax
  4002d0:	8b 40 10             	mov    0x10(%rax),%eax
  4002d3:	0f af c2             	imul   %edx,%eax
  4002d6:	39 45 f8             	cmp    %eax,-0x8(%rbp)
  4002d9:	7d 18                	jge    4002f3 <main+0xe6>
  4002db:	48 8b 15 ce 27 00 00 	mov    0x27ce(%rip),%rdx        # 402ab0 <fb>
  4002e2:	8b 45 f8             	mov    -0x8(%rbp),%eax
  4002e5:	48 98                	cltq   
  4002e7:	48 01 d0             	add    %rdx,%rax
  4002ea:	c6 00 ff             	movb   $0xff,(%rax)
  4002ed:	83 45 f8 01          	addl   $0x1,-0x8(%rbp)
  4002f1:	eb d2                	jmp    4002c5 <main+0xb8>
  4002f3:	48 c7 45 e8 19 19 40 	movq   $0x401919,-0x18(%rbp)
  4002fa:	00 
  4002fb:	48 8b 45 e8          	mov    -0x18(%rbp),%rax
  4002ff:	48 83 ec 08          	sub    $0x8,%rsp
  400303:	ff 75 f0             	pushq  -0x10(%rbp)
  400306:	41 b9 00 00 00 00    	mov    $0x0,%r9d
  40030c:	41 b8 00 00 00 00    	mov    $0x0,%r8d
  400312:	b9 00 00 00 00       	mov    $0x0,%ecx
  400317:	ba 28 00 00 00       	mov    $0x28,%edx
  40031c:	be 00 00 00 00       	mov    $0x0,%esi
  400321:	48 89 c7             	mov    %rax,%rdi
  400324:	e8 67 02 00 00       	callq  400590 <_Z10DrawStringPcjjhhhP7Surface>
  400329:	48 83 c4 10          	add    $0x10,%rsp
  40032d:	eb fe                	jmp    40032d <main+0x120>
  40032f:	90                   	nop

0000000000400330 <_Z8DrawCharciihhhP7Surface>:
  400330:	41 57                	push   %r15
  400332:	8d 42 0c             	lea    0xc(%rdx),%eax
  400335:	83 e7 7f             	and    $0x7f,%edi
  400338:	41 89 f7             	mov    %esi,%r15d
  40033b:	41 56                	push   %r14
  40033d:	41 55                	push   %r13
  40033f:	45 89 cd             	mov    %r9d,%r13d
  400342:	41 54                	push   %r12
  400344:	55                   	push   %rbp
  400345:	89 d5                	mov    %edx,%ebp
  400347:	53                   	push   %rbx
  400348:	48 83 ec 18          	sub    $0x18,%rsp
  40034c:	48 c7 c3 40 24 40 00 	mov    $0x402440,%rbx
  400353:	89 44 24 0c          	mov    %eax,0xc(%rsp)
  400357:	41 0f b6 c0          	movzbl %r8b,%eax
  40035b:	4c 8b 74 24 50       	mov    0x50(%rsp),%r14
  400360:	88 4c 24 07          	mov    %cl,0x7(%rsp)
  400364:	48 01 fb             	add    %rdi,%rbx
  400367:	89 44 24 08          	mov    %eax,0x8(%rsp)
  40036b:	eb 5a                	jmp    4003c7 <_Z8DrawCharciihhhP7Surface+0x97>
  40036d:	0f 1f 00             	nopl   (%rax)
  400370:	41 f6 c4 40          	test   $0x40,%r12b
  400374:	0f 85 89 00 00 00    	jne    400403 <_Z8DrawCharciihhhP7Surface+0xd3>
  40037a:	41 f6 c4 20          	test   $0x20,%r12b
  40037e:	0f 85 b2 00 00 00    	jne    400436 <_Z8DrawCharciihhhP7Surface+0x106>
  400384:	41 f6 c4 10          	test   $0x10,%r12b
  400388:	0f 85 db 00 00 00    	jne    400469 <_Z8DrawCharciihhhP7Surface+0x139>
  40038e:	41 f6 c4 08          	test   $0x8,%r12b
  400392:	0f 85 05 01 00 00    	jne    40049d <_Z8DrawCharciihhhP7Surface+0x16d>
  400398:	41 f6 c4 04          	test   $0x4,%r12b
  40039c:	0f 85 30 01 00 00    	jne    4004d2 <_Z8DrawCharciihhhP7Surface+0x1a2>
  4003a2:	41 f6 c4 02          	test   $0x2,%r12b
  4003a6:	0f 85 5a 01 00 00    	jne    400506 <_Z8DrawCharciihhhP7Surface+0x1d6>
  4003ac:	41 83 e4 01          	and    $0x1,%r12d
  4003b0:	0f 85 83 01 00 00    	jne    400539 <_Z8DrawCharciihhhP7Surface+0x209>
  4003b6:	48 83 eb 80          	sub    $0xffffffffffffff80,%rbx
  4003ba:	83 c5 01             	add    $0x1,%ebp
  4003bd:	39 6c 24 0c          	cmp    %ebp,0xc(%rsp)
  4003c1:	0f 84 ac 01 00 00    	je     400573 <_Z8DrawCharciihhhP7Surface+0x243>
  4003c7:	44 0f b6 23          	movzbl (%rbx),%r12d
  4003cb:	45 84 e4             	test   %r12b,%r12b
  4003ce:	79 a0                	jns    400370 <_Z8DrawCharciihhhP7Surface+0x40>
  4003d0:	41 0f b6 d5          	movzbl %r13b,%edx
  4003d4:	41 56                	push   %r14
  4003d6:	44 89 ff             	mov    %r15d,%edi
  4003d9:	b9 01 00 00 00       	mov    $0x1,%ecx
  4003de:	52                   	push   %rdx
  4003df:	44 8b 4c 24 18       	mov    0x18(%rsp),%r9d
  4003e4:	ba 01 00 00 00       	mov    $0x1,%edx
  4003e9:	89 ee                	mov    %ebp,%esi
  4003eb:	44 0f b6 44 24 17    	movzbl 0x17(%rsp),%r8d
  4003f1:	e8 7a 04 00 00       	callq  400870 <_Z8DrawRectiiiihhhP7Surface>
  4003f6:	5f                   	pop    %rdi
  4003f7:	41 58                	pop    %r8
  4003f9:	41 f6 c4 40          	test   $0x40,%r12b
  4003fd:	0f 84 77 ff ff ff    	je     40037a <_Z8DrawCharciihhhP7Surface+0x4a>
  400403:	41 0f b6 d5          	movzbl %r13b,%edx
  400407:	41 56                	push   %r14
  400409:	b9 01 00 00 00       	mov    $0x1,%ecx
  40040e:	89 ee                	mov    %ebp,%esi
  400410:	52                   	push   %rdx
  400411:	44 8b 4c 24 18       	mov    0x18(%rsp),%r9d
  400416:	41 8d 7f 01          	lea    0x1(%r15),%edi
  40041a:	ba 01 00 00 00       	mov    $0x1,%edx
  40041f:	44 0f b6 44 24 17    	movzbl 0x17(%rsp),%r8d
  400425:	e8 46 04 00 00       	callq  400870 <_Z8DrawRectiiiihhhP7Surface>
  40042a:	59                   	pop    %rcx
  40042b:	5e                   	pop    %rsi
  40042c:	41 f6 c4 20          	test   $0x20,%r12b
  400430:	0f 84 4e ff ff ff    	je     400384 <_Z8DrawCharciihhhP7Surface+0x54>
  400436:	41 0f b6 d5          	movzbl %r13b,%edx
  40043a:	41 56                	push   %r14
  40043c:	41 8d 7f 02          	lea    0x2(%r15),%edi
  400440:	b9 01 00 00 00       	mov    $0x1,%ecx
  400445:	52                   	push   %rdx
  400446:	44 8b 4c 24 18       	mov    0x18(%rsp),%r9d
  40044b:	ba 01 00 00 00       	mov    $0x1,%edx
  400450:	89 ee                	mov    %ebp,%esi
  400452:	44 0f b6 44 24 17    	movzbl 0x17(%rsp),%r8d
  400458:	e8 13 04 00 00       	callq  400870 <_Z8DrawRectiiiihhhP7Surface>
  40045d:	58                   	pop    %rax
  40045e:	5a                   	pop    %rdx
  40045f:	41 f6 c4 10          	test   $0x10,%r12b
  400463:	0f 84 25 ff ff ff    	je     40038e <_Z8DrawCharciihhhP7Surface+0x5e>
  400469:	41 0f b6 d5          	movzbl %r13b,%edx
  40046d:	41 56                	push   %r14
  40046f:	41 8d 7f 03          	lea    0x3(%r15),%edi
  400473:	b9 01 00 00 00       	mov    $0x1,%ecx
  400478:	52                   	push   %rdx
  400479:	44 8b 4c 24 18       	mov    0x18(%rsp),%r9d
  40047e:	ba 01 00 00 00       	mov    $0x1,%edx
  400483:	89 ee                	mov    %ebp,%esi
  400485:	44 0f b6 44 24 17    	movzbl 0x17(%rsp),%r8d
  40048b:	e8 e0 03 00 00       	callq  400870 <_Z8DrawRectiiiihhhP7Surface>
  400490:	41 5b                	pop    %r11
  400492:	58                   	pop    %rax
  400493:	41 f6 c4 08          	test   $0x8,%r12b
  400497:	0f 84 fb fe ff ff    	je     400398 <_Z8DrawCharciihhhP7Surface+0x68>
  40049d:	41 0f b6 d5          	movzbl %r13b,%edx
  4004a1:	41 56                	push   %r14
  4004a3:	41 8d 7f 04          	lea    0x4(%r15),%edi
  4004a7:	b9 01 00 00 00       	mov    $0x1,%ecx
  4004ac:	52                   	push   %rdx
  4004ad:	44 8b 4c 24 18       	mov    0x18(%rsp),%r9d
  4004b2:	ba 01 00 00 00       	mov    $0x1,%edx
  4004b7:	89 ee                	mov    %ebp,%esi
  4004b9:	44 0f b6 44 24 17    	movzbl 0x17(%rsp),%r8d
  4004bf:	e8 ac 03 00 00       	callq  400870 <_Z8DrawRectiiiihhhP7Surface>
  4004c4:	41 59                	pop    %r9
  4004c6:	41 5a                	pop    %r10
  4004c8:	41 f6 c4 04          	test   $0x4,%r12b
  4004cc:	0f 84 d0 fe ff ff    	je     4003a2 <_Z8DrawCharciihhhP7Surface+0x72>
  4004d2:	41 0f b6 d5          	movzbl %r13b,%edx
  4004d6:	41 56                	push   %r14
  4004d8:	41 8d 7f 05          	lea    0x5(%r15),%edi
  4004dc:	b9 01 00 00 00       	mov    $0x1,%ecx
  4004e1:	52                   	push   %rdx
  4004e2:	44 8b 4c 24 18       	mov    0x18(%rsp),%r9d
  4004e7:	ba 01 00 00 00       	mov    $0x1,%edx
  4004ec:	89 ee                	mov    %ebp,%esi
  4004ee:	44 0f b6 44 24 17    	movzbl 0x17(%rsp),%r8d
  4004f4:	e8 77 03 00 00       	callq  400870 <_Z8DrawRectiiiihhhP7Surface>
  4004f9:	5f                   	pop    %rdi
  4004fa:	41 58                	pop    %r8
  4004fc:	41 f6 c4 02          	test   $0x2,%r12b
  400500:	0f 84 a6 fe ff ff    	je     4003ac <_Z8DrawCharciihhhP7Surface+0x7c>
  400506:	41 0f b6 d5          	movzbl %r13b,%edx
  40050a:	41 56                	push   %r14
  40050c:	b9 01 00 00 00       	mov    $0x1,%ecx
  400511:	89 ee                	mov    %ebp,%esi
  400513:	52                   	push   %rdx
  400514:	44 8b 4c 24 18       	mov    0x18(%rsp),%r9d
  400519:	41 8d 7f 06          	lea    0x6(%r15),%edi
  40051d:	ba 01 00 00 00       	mov    $0x1,%edx
  400522:	44 0f b6 44 24 17    	movzbl 0x17(%rsp),%r8d
  400528:	e8 43 03 00 00       	callq  400870 <_Z8DrawRectiiiihhhP7Surface>
  40052d:	41 83 e4 01          	and    $0x1,%r12d
  400531:	59                   	pop    %rcx
  400532:	5e                   	pop    %rsi
  400533:	0f 84 7d fe ff ff    	je     4003b6 <_Z8DrawCharciihhhP7Surface+0x86>
  400539:	41 0f b6 c5          	movzbl %r13b,%eax
  40053d:	41 56                	push   %r14
  40053f:	ba 01 00 00 00       	mov    $0x1,%edx
  400544:	89 ee                	mov    %ebp,%esi
  400546:	50                   	push   %rax
  400547:	44 8b 4c 24 18       	mov    0x18(%rsp),%r9d
  40054c:	41 8d 7f 07          	lea    0x7(%r15),%edi
  400550:	b9 01 00 00 00       	mov    $0x1,%ecx
  400555:	44 0f b6 44 24 17    	movzbl 0x17(%rsp),%r8d
  40055b:	48 83 eb 80          	sub    $0xffffffffffffff80,%rbx
  40055f:	83 c5 01             	add    $0x1,%ebp
  400562:	e8 09 03 00 00       	callq  400870 <_Z8DrawRectiiiihhhP7Surface>
  400567:	58                   	pop    %rax
  400568:	5a                   	pop    %rdx
  400569:	39 6c 24 0c          	cmp    %ebp,0xc(%rsp)
  40056d:	0f 85 54 fe ff ff    	jne    4003c7 <_Z8DrawCharciihhhP7Surface+0x97>
  400573:	48 83 c4 18          	add    $0x18,%rsp
  400577:	5b                   	pop    %rbx
  400578:	5d                   	pop    %rbp
  400579:	41 5c                	pop    %r12
  40057b:	41 5d                	pop    %r13
  40057d:	41 5e                	pop    %r14
  40057f:	41 5f                	pop    %r15
  400581:	c3                   	retq   
  400582:	66 66 2e 0f 1f 84 00 	data16 nopw %cs:0x0(%rax,%rax,1)
  400589:	00 00 00 00 
  40058d:	0f 1f 00             	nopl   (%rax)

0000000000400590 <_Z10DrawStringPcjjhhhP7Surface>:
  400590:	41 57                	push   %r15
  400592:	49 89 ff             	mov    %rdi,%r15
  400595:	41 56                	push   %r14
  400597:	41 55                	push   %r13
  400599:	41 54                	push   %r12
  40059b:	55                   	push   %rbp
  40059c:	53                   	push   %rbx
  40059d:	48 83 ec 08          	sub    $0x8,%rsp
  4005a1:	0f be 3f             	movsbl (%rdi),%edi
  4005a4:	40 84 ff             	test   %dil,%dil
  4005a7:	74 45                	je     4005ee <_Z10DrawStringPcjjhhhP7Surface+0x5e>
  4005a9:	41 89 f5             	mov    %esi,%r13d
  4005ac:	41 89 d6             	mov    %edx,%r14d
  4005af:	45 0f b6 e1          	movzbl %r9b,%r12d
  4005b3:	41 0f b6 e8          	movzbl %r8b,%ebp
  4005b7:	0f b6 d9             	movzbl %cl,%ebx
  4005ba:	66 0f 1f 44 00 00    	nopw   0x0(%rax,%rax,1)
  4005c0:	48 83 ec 08          	sub    $0x8,%rsp
  4005c4:	44 89 f2             	mov    %r14d,%edx
  4005c7:	44 89 ee             	mov    %r13d,%esi
  4005ca:	45 89 e1             	mov    %r12d,%r9d
  4005cd:	ff 74 24 48          	pushq  0x48(%rsp)
  4005d1:	41 89 e8             	mov    %ebp,%r8d
  4005d4:	89 d9                	mov    %ebx,%ecx
  4005d6:	49 83 c7 01          	add    $0x1,%r15
  4005da:	41 83 c5 08          	add    $0x8,%r13d
  4005de:	e8 4d fd ff ff       	callq  400330 <_Z8DrawCharciihhhP7Surface>
  4005e3:	41 0f be 3f          	movsbl (%r15),%edi
  4005e7:	58                   	pop    %rax
  4005e8:	5a                   	pop    %rdx
  4005e9:	40 84 ff             	test   %dil,%dil
  4005ec:	75 d2                	jne    4005c0 <_Z10DrawStringPcjjhhhP7Surface+0x30>
  4005ee:	48 83 c4 08          	add    $0x8,%rsp
  4005f2:	5b                   	pop    %rbx
  4005f3:	5d                   	pop    %rbp
  4005f4:	41 5c                	pop    %r12
  4005f6:	41 5d                	pop    %r13
  4005f8:	41 5e                	pop    %r14
  4005fa:	41 5f                	pop    %r15
  4005fc:	c3                   	retq   
  4005fd:	0f 1f 00             	nopl   (%rax)

0000000000400600 <_Z18memset32_optimizedPvjm>:
  400600:	4c 8d 4a ff          	lea    -0x1(%rdx),%r9
  400604:	48 85 d2             	test   %rdx,%rdx
  400607:	74 61                	je     40066a <_Z18memset32_optimizedPvjm+0x6a>
  400609:	49 83 f9 02          	cmp    $0x2,%r9
  40060d:	76 48                	jbe    400657 <_Z18memset32_optimizedPvjm+0x57>
  40060f:	89 74 24 f4          	mov    %esi,-0xc(%rsp)
  400613:	66 0f 6e 4c 24 f4    	movd   -0xc(%rsp),%xmm1
  400619:	49 89 d0             	mov    %rdx,%r8
  40061c:	31 c0                	xor    %eax,%eax
  40061e:	49 c1 e8 02          	shr    $0x2,%r8
  400622:	66 0f 70 c1 00       	pshufd $0x0,%xmm1,%xmm0
  400627:	66 0f 1f 84 00 00 00 	nopw   0x0(%rax,%rax,1)
  40062e:	00 00 
  400630:	48 89 c1             	mov    %rax,%rcx
  400633:	48 83 c0 01          	add    $0x1,%rax
  400637:	48 c1 e1 04          	shl    $0x4,%rcx
  40063b:	0f 11 04 0f          	movups %xmm0,(%rdi,%rcx,1)
  40063f:	49 39 c0             	cmp    %rax,%r8
  400642:	75 ec                	jne    400630 <_Z18memset32_optimizedPvjm+0x30>
  400644:	48 89 d0             	mov    %rdx,%rax
  400647:	48 83 e0 fc          	and    $0xfffffffffffffffc,%rax
  40064b:	48 8d 3c 87          	lea    (%rdi,%rax,4),%rdi
  40064f:	49 29 c1             	sub    %rax,%r9
  400652:	48 39 c2             	cmp    %rax,%rdx
  400655:	74 13                	je     40066a <_Z18memset32_optimizedPvjm+0x6a>
  400657:	89 37                	mov    %esi,(%rdi)
  400659:	4d 85 c9             	test   %r9,%r9
  40065c:	74 0c                	je     40066a <_Z18memset32_optimizedPvjm+0x6a>
  40065e:	89 77 04             	mov    %esi,0x4(%rdi)
  400661:	49 83 f9 01          	cmp    $0x1,%r9
  400665:	74 03                	je     40066a <_Z18memset32_optimizedPvjm+0x6a>
  400667:	89 77 08             	mov    %esi,0x8(%rdi)
  40066a:	c3                   	retq   
  40066b:	0f 1f 44 00 00       	nopl   0x0(%rax,%rax,1)

0000000000400670 <_Z18memset64_optimizedPvmm>:
  400670:	41 54                	push   %r12
  400672:	55                   	push   %rbp
  400673:	48 89 f5             	mov    %rsi,%rbp
  400676:	53                   	push   %rbx
  400677:	48 89 fb             	mov    %rdi,%rbx
  40067a:	48 83 ec 10          	sub    $0x10,%rsp
  40067e:	83 e7 0f             	and    $0xf,%edi
  400681:	74 5d                	je     4006e0 <_Z18memset64_optimizedPvmm+0x70>
  400683:	48 85 d2             	test   %rdx,%rdx
  400686:	74 47                	je     4006cf <_Z18memset64_optimizedPvmm+0x5f>
  400688:	48 83 fa 01          	cmp    $0x1,%rdx
  40068c:	74 3e                	je     4006cc <_Z18memset64_optimizedPvmm+0x5c>
  40068e:	48 89 6c 24 08       	mov    %rbp,0x8(%rsp)
  400693:	f3 0f 7e 44 24 08    	movq   0x8(%rsp),%xmm0
  400699:	48 89 d6             	mov    %rdx,%rsi
  40069c:	31 c0                	xor    %eax,%eax
  40069e:	48 d1 ee             	shr    %rsi
  4006a1:	66 0f 6c c0          	punpcklqdq %xmm0,%xmm0
  4006a5:	0f 1f 00             	nopl   (%rax)
  4006a8:	48 89 c1             	mov    %rax,%rcx
  4006ab:	48 83 c0 01          	add    $0x1,%rax
  4006af:	48 c1 e1 04          	shl    $0x4,%rcx
  4006b3:	0f 11 04 0b          	movups %xmm0,(%rbx,%rcx,1)
  4006b7:	48 39 c6             	cmp    %rax,%rsi
  4006ba:	75 ec                	jne    4006a8 <_Z18memset64_optimizedPvmm+0x38>
  4006bc:	48 89 d0             	mov    %rdx,%rax
  4006bf:	48 83 e0 fe          	and    $0xfffffffffffffffe,%rax
  4006c3:	48 8d 1c c3          	lea    (%rbx,%rax,8),%rbx
  4006c7:	48 39 c2             	cmp    %rax,%rdx
  4006ca:	74 03                	je     4006cf <_Z18memset64_optimizedPvmm+0x5f>
  4006cc:	48 89 2b             	mov    %rbp,(%rbx)
  4006cf:	48 83 c4 10          	add    $0x10,%rsp
  4006d3:	5b                   	pop    %rbx
  4006d4:	5d                   	pop    %rbp
  4006d5:	41 5c                	pop    %r12
  4006d7:	c3                   	retq   
  4006d8:	0f 1f 84 00 00 00 00 	nopl   0x0(%rax,%rax,1)
  4006df:	00 
  4006e0:	49 89 d4             	mov    %rdx,%r12
  4006e3:	48 89 df             	mov    %rbx,%rdi
  4006e6:	48 c1 ea 03          	shr    $0x3,%rdx
  4006ea:	41 83 e4 07          	and    $0x7,%r12d
  4006ee:	e8 24 08 00 00       	callq  400f17 <memset64_sse2>
  4006f3:	4d 85 e4             	test   %r12,%r12
  4006f6:	74 d7                	je     4006cf <_Z18memset64_optimizedPvmm+0x5f>
  4006f8:	48 89 2b             	mov    %rbp,(%rbx)
  4006fb:	49 83 fc 01          	cmp    $0x1,%r12
  4006ff:	74 ce                	je     4006cf <_Z18memset64_optimizedPvmm+0x5f>
  400701:	48 89 6b 08          	mov    %rbp,0x8(%rbx)
  400705:	49 83 fc 02          	cmp    $0x2,%r12
  400709:	74 c4                	je     4006cf <_Z18memset64_optimizedPvmm+0x5f>
  40070b:	48 89 6b 10          	mov    %rbp,0x10(%rbx)
  40070f:	49 83 fc 03          	cmp    $0x3,%r12
  400713:	74 ba                	je     4006cf <_Z18memset64_optimizedPvmm+0x5f>
  400715:	48 89 6b 18          	mov    %rbp,0x18(%rbx)
  400719:	49 83 fc 04          	cmp    $0x4,%r12
  40071d:	74 b0                	je     4006cf <_Z18memset64_optimizedPvmm+0x5f>
  40071f:	48 89 6b 20          	mov    %rbp,0x20(%rbx)
  400723:	49 83 fc 05          	cmp    $0x5,%r12
  400727:	74 a6                	je     4006cf <_Z18memset64_optimizedPvmm+0x5f>
  400729:	48 89 6b 28          	mov    %rbp,0x28(%rbx)
  40072d:	49 83 fc 06          	cmp    $0x6,%r12
  400731:	74 9c                	je     4006cf <_Z18memset64_optimizedPvmm+0x5f>
  400733:	48 89 6b 30          	mov    %rbp,0x30(%rbx)
  400737:	48 83 c4 10          	add    $0x10,%rsp
  40073b:	5b                   	pop    %rbx
  40073c:	5d                   	pop    %rbp
  40073d:	41 5c                	pop    %r12
  40073f:	c3                   	retq   

0000000000400740 <_Z24CreateFramebufferSurface6FBInfoPv>:
  400740:	53                   	push   %rbx
  400741:	48 89 fb             	mov    %rdi,%rbx
  400744:	bf 28 00 00 00       	mov    $0x28,%edi
  400749:	e8 52 09 00 00       	callq  4010a0 <malloc>
  40074e:	48 8b 54 24 10       	mov    0x10(%rsp),%rdx
  400753:	48 c7 00 00 00 00 00 	movq   $0x0,(%rax)
  40075a:	48 89 50 08          	mov    %rdx,0x8(%rax)
  40075e:	0f b7 54 24 18       	movzwl 0x18(%rsp),%edx
  400763:	48 89 58 18          	mov    %rbx,0x18(%rax)
  400767:	88 50 14             	mov    %dl,0x14(%rax)
  40076a:	8b 54 24 1a          	mov    0x1a(%rsp),%edx
  40076e:	89 50 10             	mov    %edx,0x10(%rax)
  400771:	5b                   	pop    %rbx
  400772:	c3                   	retq   
  400773:	66 66 2e 0f 1f 84 00 	data16 nopw %cs:0x0(%rax,%rax,1)
  40077a:	00 00 00 00 
  40077e:	66 90                	xchg   %ax,%ax

0000000000400780 <_Z5floord>:
  400780:	f2 0f 2c c0          	cvttsd2si %xmm0,%eax
  400784:	66 0f ef c9          	pxor   %xmm1,%xmm1
  400788:	31 d2                	xor    %edx,%edx
  40078a:	f2 0f 2a c8          	cvtsi2sd %eax,%xmm1
  40078e:	66 0f 2f c8          	comisd %xmm0,%xmm1
  400792:	0f 97 c2             	seta   %dl
  400795:	29 d0                	sub    %edx,%eax
  400797:	c3                   	retq   
  400798:	0f 1f 84 00 00 00 00 	nopl   0x0(%rax,%rax,1)
  40079f:	00 

00000000004007a0 <_Z8DrawRect4Rect10RGBAColourP7Surface>:
  4007a0:	48 89 f8             	mov    %rdi,%rax
  4007a3:	49 89 f0             	mov    %rsi,%r8
  4007a6:	55                   	push   %rbp
  4007a7:	44 8d 1c 3e          	lea    (%rsi,%rdi,1),%r11d
  4007ab:	48 c1 f8 20          	sar    $0x20,%rax
  4007af:	49 c1 f8 20          	sar    $0x20,%r8
  4007b3:	53                   	push   %rbx
  4007b4:	45 31 d2             	xor    %r10d,%r10d
  4007b7:	89 c3                	mov    %eax,%ebx
  4007b9:	45 89 c1             	mov    %r8d,%r9d
  4007bc:	85 ff                	test   %edi,%edi
  4007be:	78 06                	js     4007c6 <_Z8DrawRect4Rect10RGBAColourP7Surface+0x26>
  4007c0:	41 89 fa             	mov    %edi,%r10d
  4007c3:	41 89 f3             	mov    %esi,%r11d
  4007c6:	85 c0                	test   %eax,%eax
  4007c8:	79 06                	jns    4007d0 <_Z8DrawRect4Rect10RGBAColourP7Surface+0x30>
  4007ca:	45 8d 0c 00          	lea    (%r8,%rax,1),%r9d
  4007ce:	31 db                	xor    %ebx,%ebx
  4007d0:	89 d7                	mov    %edx,%edi
  4007d2:	0f b6 c2             	movzbl %dl,%eax
  4007d5:	4c 8b 41 18          	mov    0x18(%rcx),%r8
  4007d9:	c1 e0 10             	shl    $0x10,%eax
  4007dc:	81 e7 00 00 00 ff    	and    $0xff000000,%edi
  4007e2:	09 c7                	or     %eax,%edi
  4007e4:	89 d0                	mov    %edx,%eax
  4007e6:	81 e2 00 ff 00 00    	and    $0xff00,%edx
  4007ec:	c1 e8 10             	shr    $0x10,%eax
  4007ef:	0f b6 c0             	movzbl %al,%eax
  4007f2:	09 c7                	or     %eax,%edi
  4007f4:	09 d7                	or     %edx,%edi
  4007f6:	45 85 c9             	test   %r9d,%r9d
  4007f9:	7e 5f                	jle    40085a <_Z8DrawRect4Rect10RGBAColourP7Surface+0xba>
  4007fb:	3b 59 0c             	cmp    0xc(%rcx),%ebx
  4007fe:	7d 5a                	jge    40085a <_Z8DrawRect4Rect10RGBAColourP7Surface+0xba>
  400800:	89 de                	mov    %ebx,%esi
  400802:	41 8d 5c 19 ff       	lea    -0x1(%r9,%rbx,1),%ebx
  400807:	47 8d 4c 1a ff       	lea    -0x1(%r10,%r11,1),%r9d
  40080c:	0f 1f 40 00          	nopl   0x0(%rax)
  400810:	45 85 db             	test   %r11d,%r11d
  400813:	7e 39                	jle    40084e <_Z8DrawRect4Rect10RGBAColourP7Surface+0xae>
  400815:	8b 69 08             	mov    0x8(%rcx),%ebp
  400818:	41 39 ea             	cmp    %ebp,%r10d
  40081b:	7d 31                	jge    40084e <_Z8DrawRect4Rect10RGBAColourP7Surface+0xae>
  40081d:	44 89 d2             	mov    %r10d,%edx
  400820:	eb 10                	jmp    400832 <_Z8DrawRect4Rect10RGBAColourP7Surface+0x92>
  400822:	66 0f 1f 44 00 00    	nopw   0x0(%rax,%rax,1)
  400828:	8b 69 08             	mov    0x8(%rcx),%ebp
  40082b:	83 c2 01             	add    $0x1,%edx
  40082e:	39 d5                	cmp    %edx,%ebp
  400830:	7e 1c                	jle    40084e <_Z8DrawRect4Rect10RGBAColourP7Surface+0xae>
  400832:	0f b6 41 20          	movzbl 0x20(%rcx),%eax
  400836:	c0 e8 02             	shr    $0x2,%al
  400839:	0f b6 c0             	movzbl %al,%eax
  40083c:	01 e8                	add    %ebp,%eax
  40083e:	0f af c6             	imul   %esi,%eax
  400841:	01 d0                	add    %edx,%eax
  400843:	48 98                	cltq   
  400845:	41 89 3c 80          	mov    %edi,(%r8,%rax,4)
  400849:	44 39 ca             	cmp    %r9d,%edx
  40084c:	75 da                	jne    400828 <_Z8DrawRect4Rect10RGBAColourP7Surface+0x88>
  40084e:	39 f3                	cmp    %esi,%ebx
  400850:	74 08                	je     40085a <_Z8DrawRect4Rect10RGBAColourP7Surface+0xba>
  400852:	83 c6 01             	add    $0x1,%esi
  400855:	39 71 0c             	cmp    %esi,0xc(%rcx)
  400858:	7f b6                	jg     400810 <_Z8DrawRect4Rect10RGBAColourP7Surface+0x70>
  40085a:	5b                   	pop    %rbx
  40085b:	5d                   	pop    %rbp
  40085c:	c3                   	retq   
  40085d:	0f 1f 00             	nopl   (%rax)

0000000000400860 <_Z12GetVideoModev>:
  400860:	48 89 f8             	mov    %rdi,%rax
  400863:	c3                   	retq   
  400864:	66 66 2e 0f 1f 84 00 	data16 nopw %cs:0x0(%rax,%rax,1)
  40086b:	00 00 00 00 
  40086f:	90                   	nop

0000000000400870 <_Z8DrawRectiiiihhhP7Surface>:
  400870:	41 57                	push   %r15
  400872:	41 56                	push   %r14
  400874:	41 55                	push   %r13
  400876:	41 54                	push   %r12
  400878:	55                   	push   %rbp
  400879:	53                   	push   %rbx
  40087a:	89 fb                	mov    %edi,%ebx
  40087c:	48 83 ec 18          	sub    $0x18,%rsp
  400880:	8b 44 24 50          	mov    0x50(%rsp),%eax
  400884:	4c 8b 6c 24 58       	mov    0x58(%rsp),%r13
  400889:	85 ff                	test   %edi,%edi
  40088b:	79 04                	jns    400891 <_Z8DrawRectiiiihhhP7Surface+0x21>
  40088d:	01 fa                	add    %edi,%edx
  40088f:	31 db                	xor    %ebx,%ebx
  400891:	85 f6                	test   %esi,%esi
  400893:	79 04                	jns    400899 <_Z8DrawRectiiiihhhP7Surface+0x29>
  400895:	01 f1                	add    %esi,%ecx
  400897:	31 f6                	xor    %esi,%esi
  400899:	45 0f b6 c9          	movzbl %r9b,%r9d
  40089d:	0f b6 c0             	movzbl %al,%eax
  4008a0:	45 0f b6 c0          	movzbl %r8b,%r8d
  4008a4:	4d 8b 65 18          	mov    0x18(%r13),%r12
  4008a8:	41 c1 e1 08          	shl    $0x8,%r9d
  4008ac:	41 c1 e0 10          	shl    $0x10,%r8d
  4008b0:	41 09 c1             	or     %eax,%r9d
  4008b3:	45 09 c1             	or     %r8d,%r9d
  4008b6:	44 89 0c 24          	mov    %r9d,(%rsp)
  4008ba:	85 c9                	test   %ecx,%ecx
  4008bc:	7e 64                	jle    400922 <_Z8DrawRectiiiihhhP7Surface+0xb2>
  4008be:	41 3b 75 0c          	cmp    0xc(%r13),%esi
  4008c2:	7d 5e                	jge    400922 <_Z8DrawRectiiiihhhP7Surface+0xb2>
  4008c4:	8d 44 0e ff          	lea    -0x1(%rsi,%rcx,1),%eax
  4008c8:	44 8d 3c 13          	lea    (%rbx,%rdx,1),%r15d
  4008cc:	4c 63 f3             	movslq %ebx,%r14
  4008cf:	89 f5                	mov    %esi,%ebp
  4008d1:	89 44 24 04          	mov    %eax,0x4(%rsp)
  4008d5:	48 63 c2             	movslq %edx,%rax
  4008d8:	48 89 44 24 08       	mov    %rax,0x8(%rsp)
  4008dd:	eb 0a                	jmp    4008e9 <_Z8DrawRectiiiihhhP7Surface+0x79>
  4008df:	90                   	nop
  4008e0:	83 c5 01             	add    $0x1,%ebp
  4008e3:	41 39 6d 0c          	cmp    %ebp,0xc(%r13)
  4008e7:	7e 39                	jle    400922 <_Z8DrawRectiiiihhhP7Surface+0xb2>
  4008e9:	41 0f b6 45 20       	movzbl 0x20(%r13),%eax
  4008ee:	41 8b 4d 08          	mov    0x8(%r13),%ecx
  4008f2:	8b 34 24             	mov    (%rsp),%esi
  4008f5:	c0 e8 02             	shr    $0x2,%al
  4008f8:	89 ca                	mov    %ecx,%edx
  4008fa:	0f b6 c0             	movzbl %al,%eax
  4008fd:	29 da                	sub    %ebx,%edx
  4008ff:	01 c8                	add    %ecx,%eax
  400901:	48 63 d2             	movslq %edx,%rdx
  400904:	44 39 f9             	cmp    %r15d,%ecx
  400907:	48 0f 4f 54 24 08    	cmovg  0x8(%rsp),%rdx
  40090d:	0f af c5             	imul   %ebp,%eax
  400910:	4c 01 f0             	add    %r14,%rax
  400913:	49 8d 3c 84          	lea    (%r12,%rax,4),%rdi
  400917:	e8 e4 fc ff ff       	callq  400600 <_Z18memset32_optimizedPvjm>
  40091c:	3b 6c 24 04          	cmp    0x4(%rsp),%ebp
  400920:	75 be                	jne    4008e0 <_Z8DrawRectiiiihhhP7Surface+0x70>
  400922:	48 83 c4 18          	add    $0x18,%rsp
  400926:	5b                   	pop    %rbx
  400927:	5d                   	pop    %rbp
  400928:	41 5c                	pop    %r12
  40092a:	41 5d                	pop    %r13
  40092c:	41 5e                	pop    %r14
  40092e:	41 5f                	pop    %r15
  400930:	c3                   	retq   
  400931:	66 66 2e 0f 1f 84 00 	data16 nopw %cs:0x0(%rax,%rax,1)
  400938:	00 00 00 00 
  40093c:	0f 1f 40 00          	nopl   0x0(%rax)

0000000000400940 <_Z8DrawRectiiii10RGBAColourP7Surface>:
  400940:	44 89 c0             	mov    %r8d,%eax
  400943:	53                   	push   %rbx
  400944:	45 0f b6 c0          	movzbl %r8b,%r8d
  400948:	0f b6 dc             	movzbl %ah,%ebx
  40094b:	c1 e8 10             	shr    $0x10,%eax
  40094e:	41 51                	push   %r9
  400950:	0f b6 c0             	movzbl %al,%eax
  400953:	41 89 d9             	mov    %ebx,%r9d
  400956:	50                   	push   %rax
  400957:	e8 14 ff ff ff       	callq  400870 <_Z8DrawRectiiiihhhP7Surface>
  40095c:	58                   	pop    %rax
  40095d:	5a                   	pop    %rdx
  40095e:	5b                   	pop    %rbx
  40095f:	c3                   	retq   

0000000000400960 <_Z15DrawBitmapImageiiiiPhP7Surface>:
  400960:	41 57                	push   %r15
  400962:	66 0f ef c0          	pxor   %xmm0,%xmm0
  400966:	41 56                	push   %r14
  400968:	41 89 f6             	mov    %esi,%r14d
  40096b:	41 55                	push   %r13
  40096d:	41 89 d5             	mov    %edx,%r13d
  400970:	8d 14 52             	lea    (%rdx,%rdx,2),%edx
  400973:	41 54                	push   %r12
  400975:	c1 e2 03             	shl    $0x3,%edx
  400978:	41 89 fc             	mov    %edi,%r12d
  40097b:	55                   	push   %rbp
  40097c:	53                   	push   %rbx
  40097d:	4c 89 cb             	mov    %r9,%rbx
  400980:	48 83 ec 18          	sub    $0x18,%rsp
  400984:	41 8b 40 0a          	mov    0xa(%r8),%eax
  400988:	89 4c 24 08          	mov    %ecx,0x8(%rsp)
  40098c:	4a 8d 2c 00          	lea    (%rax,%r8,1),%rbp
  400990:	8d 42 3e             	lea    0x3e(%rdx),%eax
  400993:	83 c2 1f             	add    $0x1f,%edx
  400996:	0f 49 c2             	cmovns %edx,%eax
  400999:	c1 f8 05             	sar    $0x5,%eax
  40099c:	f2 0f 2a c0          	cvtsi2sd %eax,%xmm0
  4009a0:	e8 db fd ff ff       	callq  400780 <_Z5floord>
  4009a5:	8b 4c 24 08          	mov    0x8(%rsp),%ecx
  4009a9:	44 8d 1c 85 00 00 00 	lea    0x0(,%rax,4),%r11d
  4009b0:	00 
  4009b1:	44 8d 79 ff          	lea    -0x1(%rcx),%r15d
  4009b5:	45 0f af fb          	imul   %r11d,%r15d
  4009b9:	85 c9                	test   %ecx,%ecx
  4009bb:	0f 8e e1 00 00 00    	jle    400aa2 <_Z15DrawBitmapImageiiiiPhP7Surface+0x142>
  4009c1:	44 3b 73 0c          	cmp    0xc(%rbx),%r14d
  4009c5:	0f 8d d7 00 00 00    	jge    400aa2 <_Z15DrawBitmapImageiiiiPhP7Surface+0x142>
  4009cb:	41 8d 44 0e ff       	lea    -0x1(%r14,%rcx,1),%eax
  4009d0:	44 89 f6             	mov    %r14d,%esi
  4009d3:	47 8d 74 2c ff       	lea    -0x1(%r12,%r13,1),%r14d
  4009d8:	89 44 24 0c          	mov    %eax,0xc(%rsp)
  4009dc:	0f 1f 40 00          	nopl   0x0(%rax)
  4009e0:	45 85 ed             	test   %r13d,%r13d
  4009e3:	0f 8e a4 00 00 00    	jle    400a8d <_Z15DrawBitmapImageiiiiPhP7Surface+0x12d>
  4009e9:	44 8b 43 08          	mov    0x8(%rbx),%r8d
  4009ed:	45 39 c4             	cmp    %r8d,%r12d
  4009f0:	0f 8d 97 00 00 00    	jge    400a8d <_Z15DrawBitmapImageiiiiPhP7Surface+0x12d>
  4009f6:	44 89 f8             	mov    %r15d,%eax
  4009f9:	44 89 e2             	mov    %r12d,%edx
  4009fc:	44 89 5c 24 08       	mov    %r11d,0x8(%rsp)
  400a01:	eb 55                	jmp    400a58 <_Z15DrawBitmapImageiiiiPhP7Surface+0xf8>
  400a03:	0f 1f 44 00 00       	nopl   0x0(%rax,%rax,1)
  400a08:	44 0f b6 53 20       	movzbl 0x20(%rbx),%r10d
  400a0d:	4c 8b 5b 18          	mov    0x18(%rbx),%r11
  400a11:	47 8d 04 82          	lea    (%r10,%r8,4),%r8d
  400a15:	44 0f af c6          	imul   %esi,%r8d
  400a19:	45 8d 14 90          	lea    (%r8,%rdx,4),%r10d
  400a1d:	47 88 0c 13          	mov    %r9b,(%r11,%r10,1)
  400a21:	4d 89 d0             	mov    %r10,%r8
  400a24:	4c 8b 4b 18          	mov    0x18(%rbx),%r9
  400a28:	44 0f b6 11          	movzbl (%rcx),%r10d
  400a2c:	41 8d 48 01          	lea    0x1(%r8),%ecx
  400a30:	45 88 14 09          	mov    %r10b,(%r9,%rcx,1)
  400a34:	44 0f b6 0f          	movzbl (%rdi),%r9d
  400a38:	41 8d 48 02          	lea    0x2(%r8),%ecx
  400a3c:	48 8b 7b 18          	mov    0x18(%rbx),%rdi
  400a40:	44 88 0c 0f          	mov    %r9b,(%rdi,%rcx,1)
  400a44:	44 39 f2             	cmp    %r14d,%edx
  400a47:	74 3f                	je     400a88 <_Z15DrawBitmapImageiiiiPhP7Surface+0x128>
  400a49:	44 8b 43 08          	mov    0x8(%rbx),%r8d
  400a4d:	83 c2 01             	add    $0x1,%edx
  400a50:	83 c0 03             	add    $0x3,%eax
  400a53:	41 39 d0             	cmp    %edx,%r8d
  400a56:	7e 30                	jle    400a88 <_Z15DrawBitmapImageiiiiPhP7Surface+0x128>
  400a58:	89 c1                	mov    %eax,%ecx
  400a5a:	8d 78 02             	lea    0x2(%rax),%edi
  400a5d:	44 0f b6 4c 0d 00    	movzbl 0x0(%rbp,%rcx,1),%r9d
  400a63:	8d 48 01             	lea    0x1(%rax),%ecx
  400a66:	48 01 ef             	add    %rbp,%rdi
  400a69:	48 01 e9             	add    %rbp,%rcx
  400a6c:	41 80 f9 01          	cmp    $0x1,%r9b
  400a70:	75 96                	jne    400a08 <_Z15DrawBitmapImageiiiiPhP7Surface+0xa8>
  400a72:	80 39 01             	cmpb   $0x1,(%rcx)
  400a75:	75 91                	jne    400a08 <_Z15DrawBitmapImageiiiiPhP7Surface+0xa8>
  400a77:	80 3f 01             	cmpb   $0x1,(%rdi)
  400a7a:	75 8c                	jne    400a08 <_Z15DrawBitmapImageiiiiPhP7Surface+0xa8>
  400a7c:	44 39 f2             	cmp    %r14d,%edx
  400a7f:	75 c8                	jne    400a49 <_Z15DrawBitmapImageiiiiPhP7Surface+0xe9>
  400a81:	0f 1f 80 00 00 00 00 	nopl   0x0(%rax)
  400a88:	44 8b 5c 24 08       	mov    0x8(%rsp),%r11d
  400a8d:	45 29 df             	sub    %r11d,%r15d
  400a90:	39 74 24 0c          	cmp    %esi,0xc(%rsp)
  400a94:	74 0c                	je     400aa2 <_Z15DrawBitmapImageiiiiPhP7Surface+0x142>
  400a96:	83 c6 01             	add    $0x1,%esi
  400a99:	39 73 0c             	cmp    %esi,0xc(%rbx)
  400a9c:	0f 8f 3e ff ff ff    	jg     4009e0 <_Z15DrawBitmapImageiiiiPhP7Surface+0x80>
  400aa2:	48 83 c4 18          	add    $0x18,%rsp
  400aa6:	5b                   	pop    %rbx
  400aa7:	5d                   	pop    %rbp
  400aa8:	41 5c                	pop    %r12
  400aaa:	41 5d                	pop    %r13
  400aac:	41 5e                	pop    %r14
  400aae:	41 5f                	pop    %r15
  400ab0:	c3                   	retq   
  400ab1:	66 66 2e 0f 1f 84 00 	data16 nopw %cs:0x0(%rax,%rax,1)
  400ab8:	00 00 00 00 
  400abc:	0f 1f 40 00          	nopl   0x0(%rax)

0000000000400ac0 <_Z12DrawGradientiiii10RGBAColourS_P7Surface>:
  400ac0:	41 57                	push   %r15
  400ac2:	44 89 c0             	mov    %r8d,%eax
  400ac5:	41 56                	push   %r14
  400ac7:	41 55                	push   %r13
  400ac9:	41 89 cd             	mov    %ecx,%r13d
  400acc:	44 89 c1             	mov    %r8d,%ecx
  400acf:	41 54                	push   %r12
  400ad1:	c1 e9 10             	shr    $0x10,%ecx
  400ad4:	41 89 f4             	mov    %esi,%r12d
  400ad7:	55                   	push   %rbp
  400ad8:	89 d5                	mov    %edx,%ebp
  400ada:	0f b6 d4             	movzbl %ah,%edx
  400add:	53                   	push   %rbx
  400ade:	48 83 ec 38          	sub    $0x38,%rsp
  400ae2:	48 8b 5c 24 70       	mov    0x70(%rsp),%rbx
  400ae7:	85 ff                	test   %edi,%edi
  400ae9:	79 04                	jns    400aef <_Z12DrawGradientiiii10RGBAColourS_P7Surface+0x2f>
  400aeb:	01 fd                	add    %edi,%ebp
  400aed:	31 ff                	xor    %edi,%edi
  400aef:	45 85 e4             	test   %r12d,%r12d
  400af2:	79 06                	jns    400afa <_Z12DrawGradientiiii10RGBAColourS_P7Surface+0x3a>
  400af4:	45 01 e5             	add    %r12d,%r13d
  400af7:	45 31 e4             	xor    %r12d,%r12d
  400afa:	85 ed                	test   %ebp,%ebp
  400afc:	0f 8e 1e 01 00 00    	jle    400c20 <_Z12DrawGradientiiii10RGBAColourS_P7Surface+0x160>
  400b02:	3b 7b 08             	cmp    0x8(%rbx),%edi
  400b05:	0f 8d 15 01 00 00    	jge    400c20 <_Z12DrawGradientiiii10RGBAColourS_P7Surface+0x160>
  400b0b:	44 89 c8             	mov    %r9d,%eax
  400b0e:	66 0f ef c0          	pxor   %xmm0,%xmm0
  400b12:	0f b6 c9             	movzbl %cl,%ecx
  400b15:	0f b6 d2             	movzbl %dl,%edx
  400b18:	c1 e8 10             	shr    $0x10,%eax
  400b1b:	66 0f ef f6          	pxor   %xmm6,%xmm6
  400b1f:	66 0f ef c9          	pxor   %xmm1,%xmm1
  400b23:	45 0f b6 c0          	movzbl %r8b,%r8d
  400b27:	0f b6 c0             	movzbl %al,%eax
  400b2a:	f2 0f 2a f1          	cvtsi2sd %ecx,%xmm6
  400b2e:	66 0f ef ff          	pxor   %xmm7,%xmm7
  400b32:	41 89 fe             	mov    %edi,%r14d
  400b35:	f2 0f 2a c0          	cvtsi2sd %eax,%xmm0
  400b39:	44 89 c8             	mov    %r9d,%eax
  400b3c:	45 0f b6 c9          	movzbl %r9b,%r9d
  400b40:	45 31 ff             	xor    %r15d,%r15d
  400b43:	f2 0f 2a cd          	cvtsi2sd %ebp,%xmm1
  400b47:	0f b6 c4             	movzbl %ah,%eax
  400b4a:	f2 0f 2a fa          	cvtsi2sd %edx,%xmm7
  400b4e:	f2 0f 11 74 24 18    	movsd  %xmm6,0x18(%rsp)
  400b54:	f2 0f 5c c6          	subsd  %xmm6,%xmm0
  400b58:	66 0f ef f6          	pxor   %xmm6,%xmm6
  400b5c:	f2 41 0f 2a f0       	cvtsi2sd %r8d,%xmm6
  400b61:	f2 0f 11 7c 24 20    	movsd  %xmm7,0x20(%rsp)
  400b67:	f2 0f 5e c1          	divsd  %xmm1,%xmm0
  400b6b:	f2 0f 11 74 24 28    	movsd  %xmm6,0x28(%rsp)
  400b71:	f2 0f 11 04 24       	movsd  %xmm0,(%rsp)
  400b76:	66 0f ef c0          	pxor   %xmm0,%xmm0
  400b7a:	f2 0f 2a c0          	cvtsi2sd %eax,%xmm0
  400b7e:	f2 0f 5c c7          	subsd  %xmm7,%xmm0
  400b82:	f2 0f 5e c1          	divsd  %xmm1,%xmm0
  400b86:	f2 0f 11 44 24 08    	movsd  %xmm0,0x8(%rsp)
  400b8c:	66 0f ef c0          	pxor   %xmm0,%xmm0
  400b90:	f2 41 0f 2a c1       	cvtsi2sd %r9d,%xmm0
  400b95:	f2 0f 5c c6          	subsd  %xmm6,%xmm0
  400b99:	f2 0f 5e c1          	divsd  %xmm1,%xmm0
  400b9d:	f2 0f 11 44 24 10    	movsd  %xmm0,0x10(%rsp)
  400ba3:	eb 0d                	jmp    400bb2 <_Z12DrawGradientiiii10RGBAColourS_P7Surface+0xf2>
  400ba5:	0f 1f 00             	nopl   (%rax)
  400ba8:	41 83 c6 01          	add    $0x1,%r14d
  400bac:	44 39 73 08          	cmp    %r14d,0x8(%rbx)
  400bb0:	7e 6e                	jle    400c20 <_Z12DrawGradientiiii10RGBAColourS_P7Surface+0x160>
  400bb2:	66 0f ef c0          	pxor   %xmm0,%xmm0
  400bb6:	f2 0f 10 4c 24 08    	movsd  0x8(%rsp),%xmm1
  400bbc:	44 89 e9             	mov    %r13d,%ecx
  400bbf:	44 89 e6             	mov    %r12d,%esi
  400bc2:	f2 41 0f 2a c7       	cvtsi2sd %r15d,%xmm0
  400bc7:	ba 01 00 00 00       	mov    $0x1,%edx
  400bcc:	44 89 f7             	mov    %r14d,%edi
  400bcf:	41 83 c7 01          	add    $0x1,%r15d
  400bd3:	f2 0f 59 c8          	mulsd  %xmm0,%xmm1
  400bd7:	f2 0f 58 4c 24 20    	addsd  0x20(%rsp),%xmm1
  400bdd:	f2 44 0f 2c c9       	cvttsd2si %xmm1,%r9d
  400be2:	f2 0f 10 4c 24 10    	movsd  0x10(%rsp),%xmm1
  400be8:	f2 0f 59 c8          	mulsd  %xmm0,%xmm1
  400bec:	f2 0f 58 4c 24 28    	addsd  0x28(%rsp),%xmm1
  400bf2:	53                   	push   %rbx
  400bf3:	f2 0f 59 44 24 08    	mulsd  0x8(%rsp),%xmm0
  400bf9:	45 0f b6 c9          	movzbl %r9b,%r9d
  400bfd:	f2 0f 58 44 24 20    	addsd  0x20(%rsp),%xmm0
  400c03:	f2 44 0f 2c c1       	cvttsd2si %xmm1,%r8d
  400c08:	f2 0f 2c c0          	cvttsd2si %xmm0,%eax
  400c0c:	45 0f b6 c0          	movzbl %r8b,%r8d
  400c10:	0f b6 c0             	movzbl %al,%eax
  400c13:	50                   	push   %rax
  400c14:	e8 57 fc ff ff       	callq  400870 <_Z8DrawRectiiiihhhP7Surface>
  400c19:	58                   	pop    %rax
  400c1a:	5a                   	pop    %rdx
  400c1b:	44 39 fd             	cmp    %r15d,%ebp
  400c1e:	75 88                	jne    400ba8 <_Z12DrawGradientiiii10RGBAColourS_P7Surface+0xe8>
  400c20:	48 83 c4 38          	add    $0x38,%rsp
  400c24:	5b                   	pop    %rbx
  400c25:	5d                   	pop    %rbp
  400c26:	41 5c                	pop    %r12
  400c28:	41 5d                	pop    %r13
  400c2a:	41 5e                	pop    %r14
  400c2c:	41 5f                	pop    %r15
  400c2e:	c3                   	retq   
  400c2f:	90                   	nop

0000000000400c30 <_Z20DrawGradientVerticaliiii10RGBAColourS_P7Surface>:
  400c30:	41 57                	push   %r15
  400c32:	44 89 c0             	mov    %r8d,%eax
  400c35:	41 56                	push   %r14
  400c37:	41 55                	push   %r13
  400c39:	41 89 d5             	mov    %edx,%r13d
  400c3c:	0f b6 d4             	movzbl %ah,%edx
  400c3f:	41 54                	push   %r12
  400c41:	41 89 fc             	mov    %edi,%r12d
  400c44:	55                   	push   %rbp
  400c45:	89 cd                	mov    %ecx,%ebp
  400c47:	44 89 c1             	mov    %r8d,%ecx
  400c4a:	53                   	push   %rbx
  400c4b:	c1 e9 10             	shr    $0x10,%ecx
  400c4e:	48 83 ec 38          	sub    $0x38,%rsp
  400c52:	48 8b 5c 24 70       	mov    0x70(%rsp),%rbx
  400c57:	85 ff                	test   %edi,%edi
  400c59:	79 06                	jns    400c61 <_Z20DrawGradientVerticaliiii10RGBAColourS_P7Surface+0x31>
  400c5b:	41 01 fd             	add    %edi,%r13d
  400c5e:	45 31 e4             	xor    %r12d,%r12d
  400c61:	85 f6                	test   %esi,%esi
  400c63:	79 04                	jns    400c69 <_Z20DrawGradientVerticaliiii10RGBAColourS_P7Surface+0x39>
  400c65:	01 f5                	add    %esi,%ebp
  400c67:	31 f6                	xor    %esi,%esi
  400c69:	85 ed                	test   %ebp,%ebp
  400c6b:	0f 8e 1f 01 00 00    	jle    400d90 <_Z20DrawGradientVerticaliiii10RGBAColourS_P7Surface+0x160>
  400c71:	3b 73 0c             	cmp    0xc(%rbx),%esi
  400c74:	0f 8d 16 01 00 00    	jge    400d90 <_Z20DrawGradientVerticaliiii10RGBAColourS_P7Surface+0x160>
  400c7a:	44 89 c8             	mov    %r9d,%eax
  400c7d:	66 0f ef c0          	pxor   %xmm0,%xmm0
  400c81:	0f b6 c9             	movzbl %cl,%ecx
  400c84:	0f b6 d2             	movzbl %dl,%edx
  400c87:	c1 e8 10             	shr    $0x10,%eax
  400c8a:	66 0f ef f6          	pxor   %xmm6,%xmm6
  400c8e:	66 0f ef c9          	pxor   %xmm1,%xmm1
  400c92:	45 0f b6 c0          	movzbl %r8b,%r8d
  400c96:	0f b6 c0             	movzbl %al,%eax
  400c99:	f2 0f 2a f1          	cvtsi2sd %ecx,%xmm6
  400c9d:	66 0f ef ff          	pxor   %xmm7,%xmm7
  400ca1:	41 89 f6             	mov    %esi,%r14d
  400ca4:	f2 0f 2a c0          	cvtsi2sd %eax,%xmm0
  400ca8:	44 89 c8             	mov    %r9d,%eax
  400cab:	45 0f b6 c9          	movzbl %r9b,%r9d
  400caf:	45 31 ff             	xor    %r15d,%r15d
  400cb2:	f2 0f 2a cd          	cvtsi2sd %ebp,%xmm1
  400cb6:	0f b6 c4             	movzbl %ah,%eax
  400cb9:	f2 0f 2a fa          	cvtsi2sd %edx,%xmm7
  400cbd:	f2 0f 11 74 24 18    	movsd  %xmm6,0x18(%rsp)
  400cc3:	f2 0f 5c c6          	subsd  %xmm6,%xmm0
  400cc7:	66 0f ef f6          	pxor   %xmm6,%xmm6
  400ccb:	f2 41 0f 2a f0       	cvtsi2sd %r8d,%xmm6
  400cd0:	f2 0f 11 7c 24 20    	movsd  %xmm7,0x20(%rsp)
  400cd6:	f2 0f 5e c1          	divsd  %xmm1,%xmm0
  400cda:	f2 0f 11 74 24 28    	movsd  %xmm6,0x28(%rsp)
  400ce0:	f2 0f 11 04 24       	movsd  %xmm0,(%rsp)
  400ce5:	66 0f ef c0          	pxor   %xmm0,%xmm0
  400ce9:	f2 0f 2a c0          	cvtsi2sd %eax,%xmm0
  400ced:	f2 0f 5c c7          	subsd  %xmm7,%xmm0
  400cf1:	f2 0f 5e c1          	divsd  %xmm1,%xmm0
  400cf5:	f2 0f 11 44 24 08    	movsd  %xmm0,0x8(%rsp)
  400cfb:	66 0f ef c0          	pxor   %xmm0,%xmm0
  400cff:	f2 41 0f 2a c1       	cvtsi2sd %r9d,%xmm0
  400d04:	f2 0f 5c c6          	subsd  %xmm6,%xmm0
  400d08:	f2 0f 5e c1          	divsd  %xmm1,%xmm0
  400d0c:	f2 0f 11 44 24 10    	movsd  %xmm0,0x10(%rsp)
  400d12:	eb 0e                	jmp    400d22 <_Z20DrawGradientVerticaliiii10RGBAColourS_P7Surface+0xf2>
  400d14:	0f 1f 40 00          	nopl   0x0(%rax)
  400d18:	41 83 c6 01          	add    $0x1,%r14d
  400d1c:	44 39 73 0c          	cmp    %r14d,0xc(%rbx)
  400d20:	7e 6e                	jle    400d90 <_Z20DrawGradientVerticaliiii10RGBAColourS_P7Surface+0x160>
  400d22:	66 0f ef c0          	pxor   %xmm0,%xmm0
  400d26:	f2 0f 10 4c 24 08    	movsd  0x8(%rsp),%xmm1
  400d2c:	44 89 ea             	mov    %r13d,%edx
  400d2f:	44 89 f6             	mov    %r14d,%esi
  400d32:	f2 41 0f 2a c7       	cvtsi2sd %r15d,%xmm0
  400d37:	b9 01 00 00 00       	mov    $0x1,%ecx
  400d3c:	44 89 e7             	mov    %r12d,%edi
  400d3f:	41 83 c7 01          	add    $0x1,%r15d
  400d43:	f2 0f 59 c8          	mulsd  %xmm0,%xmm1
  400d47:	f2 0f 58 4c 24 20    	addsd  0x20(%rsp),%xmm1
  400d4d:	f2 44 0f 2c c9       	cvttsd2si %xmm1,%r9d
  400d52:	f2 0f 10 4c 24 10    	movsd  0x10(%rsp),%xmm1
  400d58:	f2 0f 59 c8          	mulsd  %xmm0,%xmm1
  400d5c:	f2 0f 58 4c 24 28    	addsd  0x28(%rsp),%xmm1
  400d62:	53                   	push   %rbx
  400d63:	f2 0f 59 44 24 08    	mulsd  0x8(%rsp),%xmm0
  400d69:	45 0f b6 c9          	movzbl %r9b,%r9d
  400d6d:	f2 0f 58 44 24 20    	addsd  0x20(%rsp),%xmm0
  400d73:	f2 44 0f 2c c1       	cvttsd2si %xmm1,%r8d
  400d78:	f2 0f 2c c0          	cvttsd2si %xmm0,%eax
  400d7c:	45 0f b6 c0          	movzbl %r8b,%r8d
  400d80:	0f b6 c0             	movzbl %al,%eax
  400d83:	50                   	push   %rax
  400d84:	e8 e7 fa ff ff       	callq  400870 <_Z8DrawRectiiiihhhP7Surface>
  400d89:	58                   	pop    %rax
  400d8a:	5a                   	pop    %rdx
  400d8b:	44 39 fd             	cmp    %r15d,%ebp
  400d8e:	75 88                	jne    400d18 <_Z20DrawGradientVerticaliiii10RGBAColourS_P7Surface+0xe8>
  400d90:	48 83 c4 38          	add    $0x38,%rsp
  400d94:	5b                   	pop    %rbx
  400d95:	5d                   	pop    %rbp
  400d96:	41 5c                	pop    %r12
  400d98:	41 5d                	pop    %r13
  400d9a:	41 5e                	pop    %r14
  400d9c:	41 5f                	pop    %r15
  400d9e:	c3                   	retq   
  400d9f:	90                   	nop

0000000000400da0 <_Z10surfacecpyP7SurfaceS0_8Vector2i>:
  400da0:	c3                   	retq   
  400da1:	66 66 2e 0f 1f 84 00 	data16 nopw %cs:0x0(%rax,%rax,1)
  400da8:	00 00 00 00 
  400dac:	0f 1f 40 00          	nopl   0x0(%rax)

0000000000400db0 <_Z21surfacecpyTransparentP7SurfaceS0_8Vector2i>:
  400db0:	8b 4e 0c             	mov    0xc(%rsi),%ecx
  400db3:	41 89 d0             	mov    %edx,%r8d
  400db6:	41 55                	push   %r13
  400db8:	48 c1 fa 20          	sar    $0x20,%rdx
  400dbc:	41 54                	push   %r12
  400dbe:	4c 8b 56 18          	mov    0x18(%rsi),%r10
  400dc2:	55                   	push   %rbp
  400dc3:	53                   	push   %rbx
  400dc4:	48 8b 5f 18          	mov    0x18(%rdi),%rbx
  400dc8:	85 c9                	test   %ecx,%ecx
  400dca:	0f 8e 9c 00 00 00    	jle    400e6c <_Z21surfacecpyTransparentP7SurfaceS0_8Vector2i+0xbc>
  400dd0:	8b 47 0c             	mov    0xc(%rdi),%eax
  400dd3:	29 d0                	sub    %edx,%eax
  400dd5:	85 c0                	test   %eax,%eax
  400dd7:	0f 8e 8f 00 00 00    	jle    400e6c <_Z21surfacecpyTransparentP7SurfaceS0_8Vector2i+0xbc>
  400ddd:	44 8b 66 08          	mov    0x8(%rsi),%r12d
  400de1:	89 d5                	mov    %edx,%ebp
  400de3:	45 31 c9             	xor    %r9d,%r9d
  400de6:	66 2e 0f 1f 84 00 00 	nopw   %cs:0x0(%rax,%rax,1)
  400ded:	00 00 00 
  400df0:	45 85 e4             	test   %r12d,%r12d
  400df3:	7e 64                	jle    400e59 <_Z21surfacecpyTransparentP7SurfaceS0_8Vector2i+0xa9>
  400df5:	8b 47 08             	mov    0x8(%rdi),%eax
  400df8:	89 c2                	mov    %eax,%edx
  400dfa:	44 29 c2             	sub    %r8d,%edx
  400dfd:	85 d2                	test   %edx,%edx
  400dff:	7e 58                	jle    400e59 <_Z21surfacecpyTransparentP7SurfaceS0_8Vector2i+0xa9>
  400e01:	31 c9                	xor    %ecx,%ecx
  400e03:	45 8d 1c 29          	lea    (%r9,%rbp,1),%r11d
  400e07:	eb 13                	jmp    400e1c <_Z21surfacecpyTransparentP7SurfaceS0_8Vector2i+0x6c>
  400e09:	0f 1f 80 00 00 00 00 	nopl   0x0(%rax)
  400e10:	8b 47 08             	mov    0x8(%rdi),%eax
  400e13:	89 c2                	mov    %eax,%edx
  400e15:	44 29 c2             	sub    %r8d,%edx
  400e18:	39 ca                	cmp    %ecx,%edx
  400e1a:	7e 3a                	jle    400e56 <_Z21surfacecpyTransparentP7SurfaceS0_8Vector2i+0xa6>
  400e1c:	44 89 e2             	mov    %r12d,%edx
  400e1f:	41 0f af d1          	imul   %r9d,%edx
  400e23:	01 ca                	add    %ecx,%edx
  400e25:	48 63 d2             	movslq %edx,%rdx
  400e28:	41 8b 14 92          	mov    (%r10,%rdx,4),%edx
  400e2c:	41 89 d5             	mov    %edx,%r13d
  400e2f:	41 c1 ed 18          	shr    $0x18,%r13d
  400e33:	41 81 fd ff 00 00 00 	cmp    $0xff,%r13d
  400e3a:	75 12                	jne    400e4e <_Z21surfacecpyTransparentP7SurfaceS0_8Vector2i+0x9e>
  400e3c:	41 0f af c3          	imul   %r11d,%eax
  400e40:	01 c8                	add    %ecx,%eax
  400e42:	44 01 c0             	add    %r8d,%eax
  400e45:	48 98                	cltq   
  400e47:	89 14 83             	mov    %edx,(%rbx,%rax,4)
  400e4a:	44 8b 66 08          	mov    0x8(%rsi),%r12d
  400e4e:	83 c1 01             	add    $0x1,%ecx
  400e51:	44 39 e1             	cmp    %r12d,%ecx
  400e54:	7c ba                	jl     400e10 <_Z21surfacecpyTransparentP7SurfaceS0_8Vector2i+0x60>
  400e56:	8b 4e 0c             	mov    0xc(%rsi),%ecx
  400e59:	41 83 c1 01          	add    $0x1,%r9d
  400e5d:	41 39 c9             	cmp    %ecx,%r9d
  400e60:	7d 0a                	jge    400e6c <_Z21surfacecpyTransparentP7SurfaceS0_8Vector2i+0xbc>
  400e62:	8b 47 0c             	mov    0xc(%rdi),%eax
  400e65:	29 e8                	sub    %ebp,%eax
  400e67:	44 39 c8             	cmp    %r9d,%eax
  400e6a:	7f 84                	jg     400df0 <_Z21surfacecpyTransparentP7SurfaceS0_8Vector2i+0x40>
  400e6c:	5b                   	pop    %rbx
  400e6d:	5d                   	pop    %rbp
  400e6e:	41 5c                	pop    %r12
  400e70:	41 5d                	pop    %r13
  400e72:	c3                   	retq   
  400e73:	66 2e 0f 1f 84 00 00 	nopw   %cs:0x0(%rax,%rax,1)
  400e7a:	00 00 00 
  400e7d:	0f 1f 00             	nopl   (%rax)

0000000000400e80 <memcpy_sse2>:
  400e80:	55                   	push   %rbp
  400e81:	48 89 e5             	mov    %rsp,%rbp
  400e84:	48 89 c8             	mov    %rcx,%rax
  400e87:	48 89 d3             	mov    %rdx,%rbx
  400e8a:	4c 89 c1             	mov    %r8,%rcx

0000000000400e8d <memcpy_sse2.loop>:
  400e8d:	66 0f 6f 03          	movdqa (%rbx),%xmm0
  400e91:	66 0f 7f 00          	movdqa %xmm0,(%rax)
  400e95:	48 83 c0 10          	add    $0x10,%rax
  400e99:	48 83 c3 10          	add    $0x10,%rbx
  400e9d:	e2 ee                	loop   400e8d <memcpy_sse2.loop>
  400e9f:	48 89 ec             	mov    %rbp,%rsp
  400ea2:	5d                   	pop    %rbp
  400ea3:	c3                   	retq   

0000000000400ea4 <memcpy_sse2_unaligned>:
  400ea4:	55                   	push   %rbp
  400ea5:	48 89 e5             	mov    %rsp,%rbp
  400ea8:	48 89 c8             	mov    %rcx,%rax
  400eab:	48 89 d3             	mov    %rdx,%rbx
  400eae:	4c 89 c1             	mov    %r8,%rcx

0000000000400eb1 <memcpy_sse2_unaligned.loop>:
  400eb1:	f3 0f 6f 03          	movdqu (%rbx),%xmm0
  400eb5:	f3 0f 7f 00          	movdqu %xmm0,(%rax)
  400eb9:	48 83 c0 10          	add    $0x10,%rax
  400ebd:	48 83 c3 10          	add    $0x10,%rbx
  400ec1:	e2 ee                	loop   400eb1 <memcpy_sse2_unaligned.loop>
  400ec3:	48 89 ec             	mov    %rbp,%rsp
  400ec6:	5d                   	pop    %rbp
  400ec7:	c3                   	retq   

0000000000400ec8 <memset32_sse2>:
  400ec8:	55                   	push   %rbp
  400ec9:	48 89 e5             	mov    %rsp,%rbp
  400ecc:	48 89 c8             	mov    %rcx,%rax
  400ecf:	48 89 d3             	mov    %rdx,%rbx
  400ed2:	4c 89 c1             	mov    %r8,%rcx
  400ed5:	48 83 f9 01          	cmp    $0x1,%rcx
  400ed9:	7e 37                	jle    400f12 <memset32_sse2.ret>
  400edb:	66 48 0f 6e cb       	movq   %rbx,%xmm1
  400ee0:	66 0f 6f 04 25 60 0f 	movdqa 0x400f60,%xmm0
  400ee7:	40 00 
  400ee9:	66 0f d4 c1          	paddq  %xmm1,%xmm0
  400eed:	66 0f 73 f8 04       	pslldq $0x4,%xmm0
  400ef2:	66 0f d4 c1          	paddq  %xmm1,%xmm0
  400ef6:	66 0f 73 f8 04       	pslldq $0x4,%xmm0
  400efb:	66 0f d4 c1          	paddq  %xmm1,%xmm0
  400eff:	66 0f 73 f8 04       	pslldq $0x4,%xmm0
  400f04:	66 0f d4 c1          	paddq  %xmm1,%xmm0

0000000000400f08 <memset32_sse2.loop>:
  400f08:	66 0f 7f 00          	movdqa %xmm0,(%rax)
  400f0c:	48 83 c0 10          	add    $0x10,%rax
  400f10:	e2 f6                	loop   400f08 <memset32_sse2.loop>

0000000000400f12 <memset32_sse2.ret>:
  400f12:	48 89 ec             	mov    %rbp,%rsp
  400f15:	5d                   	pop    %rbp
  400f16:	c3                   	retq   

0000000000400f17 <memset64_sse2>:
  400f17:	55                   	push   %rbp
  400f18:	48 89 e5             	mov    %rsp,%rbp
  400f1b:	48 89 c8             	mov    %rcx,%rax
  400f1e:	48 89 d3             	mov    %rdx,%rbx
  400f21:	4c 89 c1             	mov    %r8,%rcx
  400f24:	48 83 f9 01          	cmp    $0x1,%rcx
  400f28:	7e 25                	jle    400f4f <memset64_sse2.ret>
  400f2a:	66 48 0f 6e cb       	movq   %rbx,%xmm1
  400f2f:	66 0f 6f 04 25 60 0f 	movdqa 0x400f60,%xmm0
  400f36:	40 00 
  400f38:	66 0f d4 c1          	paddq  %xmm1,%xmm0
  400f3c:	66 0f 73 f8 08       	pslldq $0x8,%xmm0
  400f41:	66 0f d4 c1          	paddq  %xmm1,%xmm0

0000000000400f45 <memset64_sse2.loop>:
  400f45:	66 0f 7f 00          	movdqa %xmm0,(%rax)
  400f49:	48 83 c0 10          	add    $0x10,%rax
  400f4d:	e2 f6                	loop   400f45 <memset64_sse2.loop>

0000000000400f4f <memset64_sse2.ret>:
  400f4f:	48 89 ec             	mov    %rbp,%rsp
  400f52:	5d                   	pop    %rbp
  400f53:	c3                   	retq   
  400f54:	90                   	nop
  400f55:	90                   	nop
  400f56:	90                   	nop
  400f57:	90                   	nop
  400f58:	90                   	nop
  400f59:	90                   	nop
  400f5a:	90                   	nop
  400f5b:	90                   	nop
  400f5c:	90                   	nop
  400f5d:	90                   	nop
  400f5e:	90                   	nop
  400f5f:	90                   	nop

0000000000400f60 <bigzero>:
	...

0000000000400f70 <lemon_map_fb>:
  400f70:	48 83 ec 18          	sub    $0x18,%rsp
  400f74:	48 89 fa             	mov    %rdi,%rdx
  400f77:	45 31 c9             	xor    %r9d,%r9d
  400f7a:	45 31 c0             	xor    %r8d,%r8d
  400f7d:	48 8d 74 24 08       	lea    0x8(%rsp),%rsi
  400f82:	31 c9                	xor    %ecx,%ecx
  400f84:	bf 0e 00 00 00       	mov    $0xe,%edi
  400f89:	48 c7 44 24 08 00 00 	movq   $0x0,0x8(%rsp)
  400f90:	00 00 
  400f92:	e8 b9 08 00 00       	callq  401850 <syscall>
  400f97:	48 8b 44 24 08       	mov    0x8(%rsp),%rax
  400f9c:	48 83 c4 18          	add    $0x18,%rsp
  400fa0:	c3                   	retq   
  400fa1:	66 2e 0f 1f 84 00 00 	nopw   %cs:0x0(%rax,%rax,1)
  400fa8:	00 00 00 
  400fab:	0f 1f 44 00 00       	nopl   0x0(%rax,%rax,1)

0000000000400fb0 <allocate_new_page>:
  400fb0:	8d 47 50             	lea    0x50(%rdi),%eax
  400fb3:	31 d2                	xor    %edx,%edx
  400fb5:	53                   	push   %rbx
  400fb6:	f7 35 88 1a 00 00    	divl   0x1a88(%rip)        # 402a44 <l_pageSize>
  400fbc:	83 fa 01             	cmp    $0x1,%edx
  400fbf:	83 d8 ff             	sbb    $0xffffffff,%eax
  400fc2:	39 05 78 1a 00 00    	cmp    %eax,0x1a78(%rip)        # 402a40 <l_pageCount>
  400fc8:	0f 43 05 71 1a 00 00 	cmovae 0x1a71(%rip),%eax        # 402a40 <l_pageCount>
  400fcf:	89 c7                	mov    %eax,%edi
  400fd1:	48 89 fb             	mov    %rdi,%rbx
  400fd4:	e8 b7 08 00 00       	callq  401890 <liballoc_alloc>
  400fd9:	66 0f ef c0          	pxor   %xmm0,%xmm0
  400fdd:	48 c7 c2 e0 2a 40 00 	mov    $0x402ae0,%rdx
  400fe4:	0f 11 40 10          	movups %xmm0,0x10(%rax)
  400fe8:	89 58 10             	mov    %ebx,0x10(%rax)
  400feb:	0f af 1d 52 1a 00 00 	imul   0x1a52(%rip),%ebx        # 402a44 <l_pageSize>
  400ff2:	48 c7 00 00 00 00 00 	movq   $0x0,(%rax)
  400ff9:	48 c7 40 08 00 00 00 	movq   $0x0,0x8(%rax)
  401000:	00 
  401001:	48 c7 40 20 00 00 00 	movq   $0x0,0x20(%rax)
  401008:	00 
  401009:	89 58 14             	mov    %ebx,0x14(%rax)
  40100c:	c7 40 18 28 00 00 00 	movl   $0x28,0x18(%rax)
  401013:	48 01 1a             	add    %rbx,(%rdx)
  401016:	5b                   	pop    %rbx
  401017:	c3                   	retq   
  401018:	0f 1f 84 00 00 00 00 	nopl   0x0(%rax,%rax,1)
  40101f:	00 

0000000000401020 <liballoc_init>:
  401020:	48 c7 c0 e0 2a 40 00 	mov    $0x402ae0,%rax
  401027:	48 c7 05 d6 1a 00 00 	movq   $0x0,0x1ad6(%rip)        # 402b08 <l_memRoot>
  40102e:	00 00 00 00 
  401032:	48 c7 05 c3 1a 00 00 	movq   $0x0,0x1ac3(%rip)        # 402b00 <l_bestBet>
  401039:	00 00 00 00 
  40103d:	48 c7 00 00 00 00 00 	movq   $0x0,(%rax)
  401044:	48 c7 c0 d8 2a 40 00 	mov    $0x402ad8,%rax
  40104b:	c7 05 ef 19 00 00 00 	movl   $0x1000,0x19ef(%rip)        # 402a44 <l_pageSize>
  401052:	10 00 00 
  401055:	48 c7 00 00 00 00 00 	movq   $0x0,(%rax)
  40105c:	48 c7 c0 d0 2a 40 00 	mov    $0x402ad0,%rax
  401063:	c7 05 d3 19 00 00 20 	movl   $0x20,0x19d3(%rip)        # 402a40 <l_pageCount>
  40106a:	00 00 00 
  40106d:	48 c7 00 00 00 00 00 	movq   $0x0,(%rax)
  401074:	48 c7 05 79 1a 00 00 	movq   $0x0,0x1a79(%rip)        # 402af8 <l_warningCount>
  40107b:	00 00 00 00 
  40107f:	48 c7 05 66 1a 00 00 	movq   $0x0,0x1a66(%rip)        # 402af0 <l_errorCount>
  401086:	00 00 00 00 
  40108a:	48 c7 05 53 1a 00 00 	movq   $0x0,0x1a53(%rip)        # 402ae8 <l_possibleOverruns>
  401091:	00 00 00 00 
  401095:	c3                   	retq   
  401096:	66 2e 0f 1f 84 00 00 	nopw   %cs:0x0(%rax,%rax,1)
  40109d:	00 00 00 

00000000004010a0 <malloc>:
  4010a0:	41 57                	push   %r15
  4010a2:	41 56                	push   %r14
  4010a4:	41 55                	push   %r13
  4010a6:	49 89 fd             	mov    %rdi,%r13
  4010a9:	41 54                	push   %r12
  4010ab:	55                   	push   %rbp
  4010ac:	53                   	push   %rbx
  4010ad:	48 83 ec 18          	sub    $0x18,%rsp
  4010b1:	eb 1a                	jmp    4010cd <malloc+0x2d>
  4010b3:	0f 1f 44 00 00       	nopl   0x0(%rax,%rax,1)
  4010b8:	31 c0                	xor    %eax,%eax
  4010ba:	48 83 05 36 1a 00 00 	addq   $0x1,0x1a36(%rip)        # 402af8 <l_warningCount>
  4010c1:	01 
  4010c2:	41 bd 01 00 00 00    	mov    $0x1,%r13d
  4010c8:	e8 b3 07 00 00       	callq  401880 <liballoc_unlock>
  4010cd:	4d 8d 65 20          	lea    0x20(%r13),%r12
  4010d1:	31 c0                	xor    %eax,%eax
  4010d3:	e8 98 07 00 00       	callq  401870 <liballoc_lock>
  4010d8:	4d 85 e4             	test   %r12,%r12
  4010db:	74 db                	je     4010b8 <malloc+0x18>
  4010dd:	48 8b 05 24 1a 00 00 	mov    0x1a24(%rip),%rax        # 402b08 <l_memRoot>
  4010e4:	48 85 c0             	test   %rax,%rax
  4010e7:	0f 84 92 02 00 00    	je     40137f <malloc+0x2df>
  4010ed:	48 8b 1d 0c 1a 00 00 	mov    0x1a0c(%rip),%rbx        # 402b00 <l_bestBet>
  4010f4:	49 8d 6d 48          	lea    0x48(%r13),%rbp
  4010f8:	48 85 db             	test   %rbx,%rbx
  4010fb:	0f 84 df 01 00 00    	je     4012e0 <malloc+0x240>
  401101:	8b 53 14             	mov    0x14(%rbx),%edx
  401104:	8b 4b 18             	mov    0x18(%rbx),%ecx
  401107:	41 bf 01 00 00 00    	mov    $0x1,%r15d
  40110d:	41 89 d6             	mov    %edx,%r14d
  401110:	41 29 ce             	sub    %ecx,%r14d
  401113:	49 39 ee             	cmp    %rbp,%r14
  401116:	0f 86 94 01 00 00    	jbe    4012b0 <malloc+0x210>
  40111c:	89 d0                	mov    %edx,%eax
  40111e:	29 c8                	sub    %ecx,%eax
  401120:	4c 39 f0             	cmp    %r14,%rax
  401123:	76 0a                	jbe    40112f <malloc+0x8f>
  401125:	48 89 1d d4 19 00 00 	mov    %rbx,0x19d4(%rip)        # 402b00 <l_bestBet>
  40112c:	49 89 c6             	mov    %rax,%r14
  40112f:	48 39 e8             	cmp    %rbp,%rax
  401132:	73 24                	jae    401158 <malloc+0xb8>
  401134:	48 8b 43 08          	mov    0x8(%rbx),%rax
  401138:	48 85 c0             	test   %rax,%rax
  40113b:	0f 84 af 00 00 00    	je     4011f0 <malloc+0x150>
  401141:	8b 50 14             	mov    0x14(%rax),%edx
  401144:	8b 48 18             	mov    0x18(%rax),%ecx
  401147:	48 89 c3             	mov    %rax,%rbx
  40114a:	89 d0                	mov    %edx,%eax
  40114c:	29 c8                	sub    %ecx,%eax
  40114e:	4c 39 f0             	cmp    %r14,%rax
  401151:	77 d2                	ja     401125 <malloc+0x85>
  401153:	48 39 e8             	cmp    %rbp,%rax
  401156:	72 dc                	jb     401134 <malloc+0x94>
  401158:	48 8b 53 20          	mov    0x20(%rbx),%rdx
  40115c:	48 85 d2             	test   %rdx,%rdx
  40115f:	0f 84 40 02 00 00    	je     4013a5 <malloc+0x305>
  401165:	48 89 d0             	mov    %rdx,%rax
  401168:	48 29 d8             	sub    %rbx,%rax
  40116b:	48 83 e8 28          	sub    $0x28,%rax
  40116f:	48 39 e8             	cmp    %rbp,%rax
  401172:	0f 83 99 02 00 00    	jae    401411 <malloc+0x371>
  401178:	48 8b 4a 08          	mov    0x8(%rdx),%rcx
  40117c:	8b 72 1c             	mov    0x1c(%rdx),%esi
  40117f:	48 85 c9             	test   %rcx,%rcx
  401182:	74 25                	je     4011a9 <malloc+0x109>
  401184:	48 89 c8             	mov    %rcx,%rax
  401187:	48 29 d0             	sub    %rdx,%rax
  40118a:	48 83 e8 28          	sub    $0x28,%rax
  40118e:	48 29 f0             	sub    %rsi,%rax
  401191:	48 39 e8             	cmp    %rbp,%rax
  401194:	0f 83 96 00 00 00    	jae    401230 <malloc+0x190>
  40119a:	48 89 ca             	mov    %rcx,%rdx
  40119d:	48 8b 4a 08          	mov    0x8(%rdx),%rcx
  4011a1:	8b 72 1c             	mov    0x1c(%rdx),%esi
  4011a4:	48 85 c9             	test   %rcx,%rcx
  4011a7:	75 db                	jne    401184 <malloc+0xe4>
  4011a9:	8b 43 14             	mov    0x14(%rbx),%eax
  4011ac:	48 8d 44 03 d8       	lea    -0x28(%rbx,%rax,1),%rax
  4011b1:	48 29 d0             	sub    %rdx,%rax
  4011b4:	48 29 f0             	sub    %rsi,%rax
  4011b7:	48 39 e8             	cmp    %rbp,%rax
  4011ba:	0f 83 38 01 00 00    	jae    4012f8 <malloc+0x258>
  4011c0:	48 8b 43 08          	mov    0x8(%rbx),%rax
  4011c4:	48 85 c0             	test   %rax,%rax
  4011c7:	0f 85 74 ff ff ff    	jne    401141 <malloc+0xa1>
  4011cd:	41 83 ff 01          	cmp    $0x1,%r15d
  4011d1:	74 23                	je     4011f6 <malloc+0x156>
  4011d3:	44 89 e7             	mov    %r12d,%edi
  4011d6:	e8 d5 fd ff ff       	callq  400fb0 <allocate_new_page>
  4011db:	48 89 43 08          	mov    %rax,0x8(%rbx)
  4011df:	48 85 c0             	test   %rax,%rax
  4011e2:	0f 84 af 01 00 00    	je     401397 <malloc+0x2f7>
  4011e8:	48 89 18             	mov    %rbx,(%rax)
  4011eb:	e9 51 ff ff ff       	jmpq   401141 <malloc+0xa1>
  4011f0:	41 83 ff 01          	cmp    $0x1,%r15d
  4011f4:	75 1a                	jne    401210 <malloc+0x170>
  4011f6:	48 8b 05 0b 19 00 00 	mov    0x190b(%rip),%rax        # 402b08 <l_memRoot>
  4011fd:	48 85 c0             	test   %rax,%rax
  401200:	0f 84 91 01 00 00    	je     401397 <malloc+0x2f7>
  401206:	45 31 ff             	xor    %r15d,%r15d
  401209:	e9 33 ff ff ff       	jmpq   401141 <malloc+0xa1>
  40120e:	66 90                	xchg   %ax,%ax
  401210:	44 89 e7             	mov    %r12d,%edi
  401213:	e8 98 fd ff ff       	callq  400fb0 <allocate_new_page>
  401218:	48 89 43 08          	mov    %rax,0x8(%rbx)
  40121c:	48 85 c0             	test   %rax,%rax
  40121f:	0f 84 72 01 00 00    	je     401397 <malloc+0x2f7>
  401225:	48 89 18             	mov    %rbx,(%rax)
  401228:	48 89 c3             	mov    %rax,%rbx
  40122b:	e9 28 ff ff ff       	jmpq   401158 <malloc+0xb8>
  401230:	48 89 54 24 08       	mov    %rdx,0x8(%rsp)
  401235:	f3 0f 7e 44 24 08    	movq   0x8(%rsp),%xmm0
  40123b:	48 01 d6             	add    %rdx,%rsi
  40123e:	48 89 4c 24 08       	mov    %rcx,0x8(%rsp)
  401243:	48 8d 46 28          	lea    0x28(%rsi),%rax
  401247:	48 83 c6 60          	add    $0x60,%rsi
  40124b:	c7 46 e0 de c0 01 c0 	movl   $0xc001c0de,-0x20(%rsi)
  401252:	44 89 66 e4          	mov    %r12d,-0x1c(%rsi)
  401256:	0f 16 44 24 08       	movhps 0x8(%rsp),%xmm0
  40125b:	44 89 6e e8          	mov    %r13d,-0x18(%rsi)
  40125f:	0f 11 46 c8          	movups %xmm0,-0x38(%rsi)
  401263:	48 8b 4a 08          	mov    0x8(%rdx),%rcx
  401267:	48 89 5e d8          	mov    %rbx,-0x28(%rsi)
  40126b:	48 89 01             	mov    %rax,(%rcx)
  40126e:	48 89 42 08          	mov    %rax,0x8(%rdx)
  401272:	41 8d 44 24 28       	lea    0x28(%r12),%eax
  401277:	48 89 f2             	mov    %rsi,%rdx
  40127a:	01 43 18             	add    %eax,0x18(%rbx)
  40127d:	48 c7 c0 d8 2a 40 00 	mov    $0x402ad8,%rax
  401284:	4c 01 20             	add    %r12,(%rax)
  401287:	83 e2 0f             	and    $0xf,%edx
  40128a:	75 3c                	jne    4012c8 <malloc+0x228>
  40128c:	48 89 f5             	mov    %rsi,%rbp
  40128f:	b8 10 00 00 00       	mov    $0x10,%eax
  401294:	88 46 f0             	mov    %al,-0x10(%rsi)
  401297:	31 c0                	xor    %eax,%eax
  401299:	e8 e2 05 00 00       	callq  401880 <liballoc_unlock>
  40129e:	48 83 c4 18          	add    $0x18,%rsp
  4012a2:	48 89 e8             	mov    %rbp,%rax
  4012a5:	5b                   	pop    %rbx
  4012a6:	5d                   	pop    %rbp
  4012a7:	41 5c                	pop    %r12
  4012a9:	41 5d                	pop    %r13
  4012ab:	41 5e                	pop    %r14
  4012ad:	41 5f                	pop    %r15
  4012af:	c3                   	retq   
  4012b0:	8b 50 14             	mov    0x14(%rax),%edx
  4012b3:	8b 48 18             	mov    0x18(%rax),%ecx
  4012b6:	48 89 c3             	mov    %rax,%rbx
  4012b9:	45 31 ff             	xor    %r15d,%r15d
  4012bc:	e9 5b fe ff ff       	jmpq   40111c <malloc+0x7c>
  4012c1:	0f 1f 80 00 00 00 00 	nopl   0x0(%rax)
  4012c8:	b8 10 00 00 00       	mov    $0x10,%eax
  4012cd:	48 29 d0             	sub    %rdx,%rax
  4012d0:	48 01 c6             	add    %rax,%rsi
  4012d3:	83 c0 10             	add    $0x10,%eax
  4012d6:	48 89 f5             	mov    %rsi,%rbp
  4012d9:	eb b9                	jmp    401294 <malloc+0x1f4>
  4012db:	0f 1f 44 00 00       	nopl   0x0(%rax,%rax,1)
  4012e0:	8b 50 14             	mov    0x14(%rax),%edx
  4012e3:	8b 48 18             	mov    0x18(%rax),%ecx
  4012e6:	48 89 c3             	mov    %rax,%rbx
  4012e9:	45 31 f6             	xor    %r14d,%r14d
  4012ec:	45 31 ff             	xor    %r15d,%r15d
  4012ef:	e9 28 fe ff ff       	jmpq   40111c <malloc+0x7c>
  4012f4:	0f 1f 40 00          	nopl   0x0(%rax)
  4012f8:	48 8d 04 32          	lea    (%rdx,%rsi,1),%rax
  4012fc:	48 8d 48 28          	lea    0x28(%rax),%rcx
  401300:	48 89 4a 08          	mov    %rcx,0x8(%rdx)
  401304:	48 89 50 28          	mov    %rdx,0x28(%rax)
  401308:	41 8d 54 24 28       	lea    0x28(%r12),%edx
  40130d:	44 89 60 44          	mov    %r12d,0x44(%rax)
  401311:	48 c7 40 30 00 00 00 	movq   $0x0,0x30(%rax)
  401318:	00 
  401319:	c7 40 40 de c0 01 c0 	movl   $0xc001c0de,0x40(%rax)
  401320:	48 89 58 38          	mov    %rbx,0x38(%rax)
  401324:	44 89 68 48          	mov    %r13d,0x48(%rax)
  401328:	01 53 18             	add    %edx,0x18(%rbx)
  40132b:	48 c7 c2 d8 2a 40 00 	mov    $0x402ad8,%rdx
  401332:	4c 03 22             	add    (%rdx),%r12
  401335:	4c 89 22             	mov    %r12,(%rdx)
  401338:	48 c7 c2 d0 2a 40 00 	mov    $0x402ad0,%rdx
  40133f:	4c 39 22             	cmp    %r12,(%rdx)
  401342:	4c 0f 43 22          	cmovae (%rdx),%r12
  401346:	48 83 c0 60          	add    $0x60,%rax
  40134a:	48 89 c1             	mov    %rax,%rcx
  40134d:	4c 89 22             	mov    %r12,(%rdx)
  401350:	83 e1 0f             	and    $0xf,%ecx
  401353:	75 17                	jne    40136c <malloc+0x2cc>
  401355:	48 89 c5             	mov    %rax,%rbp
  401358:	ba 10 00 00 00       	mov    $0x10,%edx
  40135d:	88 50 f0             	mov    %dl,-0x10(%rax)
  401360:	31 c0                	xor    %eax,%eax
  401362:	e8 19 05 00 00       	callq  401880 <liballoc_unlock>
  401367:	e9 32 ff ff ff       	jmpq   40129e <malloc+0x1fe>
  40136c:	ba 10 00 00 00       	mov    $0x10,%edx
  401371:	48 29 ca             	sub    %rcx,%rdx
  401374:	48 01 d0             	add    %rdx,%rax
  401377:	83 c2 10             	add    $0x10,%edx
  40137a:	48 89 c5             	mov    %rax,%rbp
  40137d:	eb de                	jmp    40135d <malloc+0x2bd>
  40137f:	44 89 e7             	mov    %r12d,%edi
  401382:	e8 29 fc ff ff       	callq  400fb0 <allocate_new_page>
  401387:	48 89 05 7a 17 00 00 	mov    %rax,0x177a(%rip)        # 402b08 <l_memRoot>
  40138e:	48 85 c0             	test   %rax,%rax
  401391:	0f 85 56 fd ff ff    	jne    4010ed <malloc+0x4d>
  401397:	31 c0                	xor    %eax,%eax
  401399:	31 ed                	xor    %ebp,%ebp
  40139b:	e8 e0 04 00 00       	callq  401880 <liballoc_unlock>
  4013a0:	e9 f9 fe ff ff       	jmpq   40129e <malloc+0x1fe>
  4013a5:	48 8d 43 28          	lea    0x28(%rbx),%rax
  4013a9:	c7 43 40 de c0 01 c0 	movl   $0xc001c0de,0x40(%rbx)
  4013b0:	66 0f ef c0          	pxor   %xmm0,%xmm0
  4013b4:	48 89 43 20          	mov    %rax,0x20(%rbx)
  4013b8:	0f 11 43 28          	movups %xmm0,0x28(%rbx)
  4013bc:	41 8d 44 24 28       	lea    0x28(%r12),%eax
  4013c1:	01 43 18             	add    %eax,0x18(%rbx)
  4013c4:	48 c7 c0 d8 2a 40 00 	mov    $0x402ad8,%rax
  4013cb:	44 89 63 44          	mov    %r12d,0x44(%rbx)
  4013cf:	4c 03 20             	add    (%rax),%r12
  4013d2:	44 89 6b 48          	mov    %r13d,0x48(%rbx)
  4013d6:	48 89 5b 38          	mov    %rbx,0x38(%rbx)
  4013da:	4c 89 20             	mov    %r12,(%rax)
  4013dd:	48 c7 c0 d0 2a 40 00 	mov    $0x402ad0,%rax
  4013e4:	4c 39 20             	cmp    %r12,(%rax)
  4013e7:	4c 0f 43 20          	cmovae (%rax),%r12
  4013eb:	48 83 c3 60          	add    $0x60,%rbx
  4013ef:	48 89 da             	mov    %rbx,%rdx
  4013f2:	4c 89 20             	mov    %r12,(%rax)
  4013f5:	83 e2 0f             	and    $0xf,%edx
  4013f8:	75 37                	jne    401431 <malloc+0x391>
  4013fa:	48 89 dd             	mov    %rbx,%rbp
  4013fd:	b8 10 00 00 00       	mov    $0x10,%eax
  401402:	88 43 f0             	mov    %al,-0x10(%rbx)
  401405:	31 c0                	xor    %eax,%eax
  401407:	e8 74 04 00 00       	callq  401880 <liballoc_unlock>
  40140c:	e9 8d fe ff ff       	jmpq   40129e <malloc+0x1fe>
  401411:	48 8d 43 28          	lea    0x28(%rbx),%rax
  401415:	48 89 02             	mov    %rax,(%rdx)
  401418:	48 89 53 30          	mov    %rdx,0x30(%rbx)
  40141c:	48 89 43 20          	mov    %rax,0x20(%rbx)
  401420:	c7 43 40 de c0 01 c0 	movl   $0xc001c0de,0x40(%rbx)
  401427:	48 c7 43 28 00 00 00 	movq   $0x0,0x28(%rbx)
  40142e:	00 
  40142f:	eb 8b                	jmp    4013bc <malloc+0x31c>
  401431:	b8 10 00 00 00       	mov    $0x10,%eax
  401436:	48 29 d0             	sub    %rdx,%rax
  401439:	48 01 c3             	add    %rax,%rbx
  40143c:	83 c0 10             	add    $0x10,%eax
  40143f:	48 89 dd             	mov    %rbx,%rbp
  401442:	eb be                	jmp    401402 <malloc+0x362>
  401444:	66 66 2e 0f 1f 84 00 	data16 nopw %cs:0x0(%rax,%rax,1)
  40144b:	00 00 00 00 
  40144f:	90                   	nop

0000000000401450 <free>:
  401450:	48 85 ff             	test   %rdi,%rdi
  401453:	0f 84 df 00 00 00    	je     401538 <free+0xe8>
  401459:	53                   	push   %rbx
  40145a:	48 0f be 47 f0       	movsbq -0x10(%rdi),%rax
  40145f:	48 89 fb             	mov    %rdi,%rbx
  401462:	48 29 c3             	sub    %rax,%rbx
  401465:	48 83 f8 20          	cmp    $0x20,%rax
  401469:	48 0f 43 df          	cmovae %rdi,%rbx
  40146d:	31 c0                	xor    %eax,%eax
  40146f:	e8 fc 03 00 00       	callq  401870 <liballoc_lock>
  401474:	8b 43 f0             	mov    -0x10(%rbx),%eax
  401477:	48 8d 73 d8          	lea    -0x28(%rbx),%rsi
  40147b:	3d de c0 01 c0       	cmp    $0xc001c0de,%eax
  401480:	75 7e                	jne    401500 <free+0xb0>
  401482:	8b 4b f4             	mov    -0xc(%rbx),%ecx
  401485:	48 8b 7b e8          	mov    -0x18(%rbx),%rdi
  401489:	48 c7 c2 d8 2a 40 00 	mov    $0x402ad8,%rdx
  401490:	48 89 c8             	mov    %rcx,%rax
  401493:	48 29 0a             	sub    %rcx,(%rdx)
  401496:	8b 4f 18             	mov    0x18(%rdi),%ecx
  401499:	48 8b 53 e0          	mov    -0x20(%rbx),%rdx
  40149d:	29 c1                	sub    %eax,%ecx
  40149f:	89 c8                	mov    %ecx,%eax
  4014a1:	48 8b 4b d8          	mov    -0x28(%rbx),%rcx
  4014a5:	83 e8 28             	sub    $0x28,%eax
  4014a8:	89 47 18             	mov    %eax,0x18(%rdi)
  4014ab:	c7 43 f0 ad de ad de 	movl   $0xdeaddead,-0x10(%rbx)
  4014b2:	48 85 d2             	test   %rdx,%rdx
  4014b5:	74 06                	je     4014bd <free+0x6d>
  4014b7:	48 89 0a             	mov    %rcx,(%rdx)
  4014ba:	48 8b 0e             	mov    (%rsi),%rcx
  4014bd:	48 85 c9             	test   %rcx,%rcx
  4014c0:	0f 84 ca 00 00 00    	je     401590 <free+0x140>
  4014c6:	48 89 51 08          	mov    %rdx,0x8(%rcx)
  4014ca:	48 8b 57 20          	mov    0x20(%rdi),%rdx
  4014ce:	48 8b 0d 2b 16 00 00 	mov    0x162b(%rip),%rcx        # 402b00 <l_bestBet>
  4014d5:	48 85 d2             	test   %rdx,%rdx
  4014d8:	74 6e                	je     401548 <free+0xf8>
  4014da:	48 85 c9             	test   %rcx,%rcx
  4014dd:	74 16                	je     4014f5 <free+0xa5>
  4014df:	8b 77 14             	mov    0x14(%rdi),%esi
  4014e2:	8b 51 14             	mov    0x14(%rcx),%edx
  4014e5:	2b 51 18             	sub    0x18(%rcx),%edx
  4014e8:	29 c6                	sub    %eax,%esi
  4014ea:	39 f2                	cmp    %esi,%edx
  4014ec:	7d 07                	jge    4014f5 <free+0xa5>
  4014ee:	48 89 3d 0b 16 00 00 	mov    %rdi,0x160b(%rip)        # 402b00 <l_bestBet>
  4014f5:	31 c0                	xor    %eax,%eax
  4014f7:	5b                   	pop    %rbx
  4014f8:	e9 83 03 00 00       	jmpq   401880 <liballoc_unlock>
  4014fd:	0f 1f 00             	nopl   (%rax)
  401500:	89 c2                	mov    %eax,%edx
  401502:	48 83 05 e6 15 00 00 	addq   $0x1,0x15e6(%rip)        # 402af0 <l_errorCount>
  401509:	01 
  40150a:	81 e2 ff ff ff 00    	and    $0xffffff,%edx
  401510:	81 fa de c0 01 00    	cmp    $0x1c0de,%edx
  401516:	74 0a                	je     401522 <free+0xd2>
  401518:	66 3d de c0          	cmp    $0xc0de,%ax
  40151c:	74 04                	je     401522 <free+0xd2>
  40151e:	3c de                	cmp    $0xde,%al
  401520:	75 d3                	jne    4014f5 <free+0xa5>
  401522:	48 83 05 be 15 00 00 	addq   $0x1,0x15be(%rip)        # 402ae8 <l_possibleOverruns>
  401529:	01 
  40152a:	31 c0                	xor    %eax,%eax
  40152c:	5b                   	pop    %rbx
  40152d:	e9 4e 03 00 00       	jmpq   401880 <liballoc_unlock>
  401532:	66 0f 1f 44 00 00    	nopw   0x0(%rax,%rax,1)
  401538:	48 83 05 b8 15 00 00 	addq   $0x1,0x15b8(%rip)        # 402af8 <l_warningCount>
  40153f:	01 
  401540:	c3                   	retq   
  401541:	0f 1f 80 00 00 00 00 	nopl   0x0(%rax)
  401548:	48 39 3d b9 15 00 00 	cmp    %rdi,0x15b9(%rip)        # 402b08 <l_memRoot>
  40154f:	48 8b 47 08          	mov    0x8(%rdi),%rax
  401553:	74 4b                	je     4015a0 <free+0x150>
  401555:	48 39 cf             	cmp    %rcx,%rdi
  401558:	74 56                	je     4015b0 <free+0x160>
  40155a:	48 8b 17             	mov    (%rdi),%rdx
  40155d:	48 85 d2             	test   %rdx,%rdx
  401560:	74 08                	je     40156a <free+0x11a>
  401562:	48 89 42 08          	mov    %rax,0x8(%rdx)
  401566:	48 8b 47 08          	mov    0x8(%rdi),%rax
  40156a:	48 85 c0             	test   %rax,%rax
  40156d:	74 03                	je     401572 <free+0x122>
  40156f:	48 89 10             	mov    %rdx,(%rax)
  401572:	48 c7 c0 e0 2a 40 00 	mov    $0x402ae0,%rax
  401579:	8b 57 14             	mov    0x14(%rdi),%edx
  40157c:	8b 77 10             	mov    0x10(%rdi),%esi
  40157f:	48 29 10             	sub    %rdx,(%rax)
  401582:	e8 39 03 00 00       	callq  4018c0 <liballoc_free>
  401587:	31 c0                	xor    %eax,%eax
  401589:	5b                   	pop    %rbx
  40158a:	e9 f1 02 00 00       	jmpq   401880 <liballoc_unlock>
  40158f:	90                   	nop
  401590:	48 89 57 20          	mov    %rdx,0x20(%rdi)
  401594:	e9 35 ff ff ff       	jmpq   4014ce <free+0x7e>
  401599:	0f 1f 80 00 00 00 00 	nopl   0x0(%rax)
  4015a0:	48 89 05 61 15 00 00 	mov    %rax,0x1561(%rip)        # 402b08 <l_memRoot>
  4015a7:	eb ac                	jmp    401555 <free+0x105>
  4015a9:	0f 1f 80 00 00 00 00 	nopl   0x0(%rax)
  4015b0:	48 c7 05 45 15 00 00 	movq   $0x0,0x1545(%rip)        # 402b00 <l_bestBet>
  4015b7:	00 00 00 00 
  4015bb:	eb 9d                	jmp    40155a <free+0x10a>
  4015bd:	0f 1f 00             	nopl   (%rax)

00000000004015c0 <calloc>:
  4015c0:	0f af fe             	imul   %esi,%edi
  4015c3:	53                   	push   %rbx
  4015c4:	48 63 df             	movslq %edi,%rbx
  4015c7:	48 89 df             	mov    %rbx,%rdi
  4015ca:	e8 d1 fa ff ff       	callq  4010a0 <malloc>
  4015cf:	48 85 db             	test   %rbx,%rbx
  4015d2:	74 1b                	je     4015ef <calloc+0x2f>
  4015d4:	31 c9                	xor    %ecx,%ecx
  4015d6:	31 d2                	xor    %edx,%edx
  4015d8:	0f 1f 84 00 00 00 00 	nopl   0x0(%rax,%rax,1)
  4015df:	00 
  4015e0:	c6 04 10 00          	movb   $0x0,(%rax,%rdx,1)
  4015e4:	8d 51 01             	lea    0x1(%rcx),%edx
  4015e7:	48 89 d1             	mov    %rdx,%rcx
  4015ea:	48 39 d3             	cmp    %rdx,%rbx
  4015ed:	77 f1                	ja     4015e0 <calloc+0x20>
  4015ef:	5b                   	pop    %rbx
  4015f0:	c3                   	retq   
  4015f1:	66 66 2e 0f 1f 84 00 	data16 nopw %cs:0x0(%rax,%rax,1)
  4015f8:	00 00 00 00 
  4015fc:	0f 1f 40 00          	nopl   0x0(%rax)

0000000000401600 <realloc>:
  401600:	41 55                	push   %r13
  401602:	41 54                	push   %r12
  401604:	55                   	push   %rbp
  401605:	53                   	push   %rbx
  401606:	48 89 fb             	mov    %rdi,%rbx
  401609:	48 83 ec 08          	sub    $0x8,%rsp
  40160d:	48 85 f6             	test   %rsi,%rsi
  401610:	0f 84 da 01 00 00    	je     4017f0 <realloc+0x1f0>
  401616:	49 89 f5             	mov    %rsi,%r13
  401619:	48 85 ff             	test   %rdi,%rdi
  40161c:	0f 84 de 01 00 00    	je     401800 <realloc+0x200>
  401622:	48 0f be 47 f0       	movsbq -0x10(%rdi),%rax
  401627:	48 89 fd             	mov    %rdi,%rbp
  40162a:	48 29 c5             	sub    %rax,%rbp
  40162d:	48 83 f8 20          	cmp    $0x20,%rax
  401631:	48 0f 43 ef          	cmovae %rdi,%rbp
  401635:	31 c0                	xor    %eax,%eax
  401637:	e8 34 02 00 00       	callq  401870 <liballoc_lock>
  40163c:	8b 45 f0             	mov    -0x10(%rbp),%eax
  40163f:	48 8d 55 d8          	lea    -0x28(%rbp),%rdx
  401643:	3d de c0 01 c0       	cmp    $0xc001c0de,%eax
  401648:	0f 85 32 01 00 00    	jne    401780 <realloc+0x180>
  40164e:	44 8b 65 f8          	mov    -0x8(%rbp),%r12d
  401652:	4d 39 ec             	cmp    %r13,%r12
  401655:	0f 83 65 01 00 00    	jae    4017c0 <realloc+0x1c0>
  40165b:	31 c0                	xor    %eax,%eax
  40165d:	e8 1e 02 00 00       	callq  401880 <liballoc_unlock>
  401662:	4c 89 ef             	mov    %r13,%rdi
  401665:	e8 36 fa ff ff       	callq  4010a0 <malloc>
  40166a:	48 89 c5             	mov    %rax,%rbp
  40166d:	49 83 fc 03          	cmp    $0x3,%r12
  401671:	0f 86 d1 01 00 00    	jbe    401848 <realloc+0x248>
  401677:	48 8d 43 10          	lea    0x10(%rbx),%rax
  40167b:	49 8d 4c 24 fc       	lea    -0x4(%r12),%rcx
  401680:	48 39 c5             	cmp    %rax,%rbp
  401683:	48 8d 45 10          	lea    0x10(%rbp),%rax
  401687:	0f 93 c2             	setae  %dl
  40168a:	48 39 c3             	cmp    %rax,%rbx
  40168d:	0f 93 c0             	setae  %al
  401690:	08 c2                	or     %al,%dl
  401692:	0f 84 80 01 00 00    	je     401818 <realloc+0x218>
  401698:	48 83 f9 0f          	cmp    $0xf,%rcx
  40169c:	0f 86 76 01 00 00    	jbe    401818 <realloc+0x218>
  4016a2:	48 89 ce             	mov    %rcx,%rsi
  4016a5:	31 d2                	xor    %edx,%edx
  4016a7:	48 c1 ee 02          	shr    $0x2,%rsi
  4016ab:	48 83 c6 01          	add    $0x1,%rsi
  4016af:	48 89 f0             	mov    %rsi,%rax
  4016b2:	48 c1 e8 02          	shr    $0x2,%rax
  4016b6:	48 c1 e0 04          	shl    $0x4,%rax
  4016ba:	66 0f 1f 44 00 00    	nopw   0x0(%rax,%rax,1)
  4016c0:	f3 0f 6f 04 13       	movdqu (%rbx,%rdx,1),%xmm0
  4016c5:	0f 11 44 15 00       	movups %xmm0,0x0(%rbp,%rdx,1)
  4016ca:	48 83 c2 10          	add    $0x10,%rdx
  4016ce:	48 39 c2             	cmp    %rax,%rdx
  4016d1:	75 ed                	jne    4016c0 <realloc+0xc0>
  4016d3:	48 89 f2             	mov    %rsi,%rdx
  4016d6:	48 83 e2 fc          	and    $0xfffffffffffffffc,%rdx
  4016da:	48 89 d7             	mov    %rdx,%rdi
  4016dd:	48 8d 04 95 00 00 00 	lea    0x0(,%rdx,4),%rax
  4016e4:	00 
  4016e5:	48 f7 df             	neg    %rdi
  4016e8:	4c 8d 04 03          	lea    (%rbx,%rax,1),%r8
  4016ec:	48 01 e8             	add    %rbp,%rax
  4016ef:	49 8d 3c bc          	lea    (%r12,%rdi,4),%rdi
  4016f3:	48 39 d6             	cmp    %rdx,%rsi
  4016f6:	74 27                	je     40171f <realloc+0x11f>
  4016f8:	41 8b 10             	mov    (%r8),%edx
  4016fb:	89 10                	mov    %edx,(%rax)
  4016fd:	48 8d 57 fc          	lea    -0x4(%rdi),%rdx
  401701:	48 83 fa 03          	cmp    $0x3,%rdx
  401705:	76 18                	jbe    40171f <realloc+0x11f>
  401707:	41 8b 50 04          	mov    0x4(%r8),%edx
  40170b:	48 83 ef 08          	sub    $0x8,%rdi
  40170f:	89 50 04             	mov    %edx,0x4(%rax)
  401712:	48 83 ff 03          	cmp    $0x3,%rdi
  401716:	76 07                	jbe    40171f <realloc+0x11f>
  401718:	41 8b 50 08          	mov    0x8(%r8),%edx
  40171c:	89 50 08             	mov    %edx,0x8(%rax)
  40171f:	48 89 ca             	mov    %rcx,%rdx
  401722:	48 c1 ea 02          	shr    $0x2,%rdx
  401726:	48 8d 04 95 04 00 00 	lea    0x4(,%rdx,4),%rax
  40172d:	00 
  40172e:	48 f7 da             	neg    %rdx
  401731:	48 8d 34 03          	lea    (%rbx,%rax,1),%rsi
  401735:	4c 8d 24 91          	lea    (%rcx,%rdx,4),%r12
  401739:	48 01 e8             	add    %rbp,%rax
  40173c:	4d 85 e4             	test   %r12,%r12
  40173f:	74 1f                	je     401760 <realloc+0x160>
  401741:	0f b6 16             	movzbl (%rsi),%edx
  401744:	88 10                	mov    %dl,(%rax)
  401746:	49 83 ec 01          	sub    $0x1,%r12
  40174a:	74 14                	je     401760 <realloc+0x160>
  40174c:	0f b6 56 01          	movzbl 0x1(%rsi),%edx
  401750:	88 50 01             	mov    %dl,0x1(%rax)
  401753:	49 83 fc 01          	cmp    $0x1,%r12
  401757:	74 07                	je     401760 <realloc+0x160>
  401759:	0f b6 56 02          	movzbl 0x2(%rsi),%edx
  40175d:	88 50 02             	mov    %dl,0x2(%rax)
  401760:	48 89 df             	mov    %rbx,%rdi
  401763:	e8 e8 fc ff ff       	callq  401450 <free>
  401768:	48 83 c4 08          	add    $0x8,%rsp
  40176c:	48 89 e8             	mov    %rbp,%rax
  40176f:	5b                   	pop    %rbx
  401770:	5d                   	pop    %rbp
  401771:	41 5c                	pop    %r12
  401773:	41 5d                	pop    %r13
  401775:	c3                   	retq   
  401776:	66 2e 0f 1f 84 00 00 	nopw   %cs:0x0(%rax,%rax,1)
  40177d:	00 00 00 
  401780:	89 c2                	mov    %eax,%edx
  401782:	48 83 05 66 13 00 00 	addq   $0x1,0x1366(%rip)        # 402af0 <l_errorCount>
  401789:	01 
  40178a:	81 e2 ff ff ff 00    	and    $0xffffff,%edx
  401790:	81 fa de c0 01 00    	cmp    $0x1c0de,%edx
  401796:	74 48                	je     4017e0 <realloc+0x1e0>
  401798:	66 3d de c0          	cmp    $0xc0de,%ax
  40179c:	74 42                	je     4017e0 <realloc+0x1e0>
  40179e:	3c de                	cmp    $0xde,%al
  4017a0:	74 3e                	je     4017e0 <realloc+0x1e0>
  4017a2:	31 c0                	xor    %eax,%eax
  4017a4:	31 ed                	xor    %ebp,%ebp
  4017a6:	e8 d5 00 00 00       	callq  401880 <liballoc_unlock>
  4017ab:	48 83 c4 08          	add    $0x8,%rsp
  4017af:	48 89 e8             	mov    %rbp,%rax
  4017b2:	5b                   	pop    %rbx
  4017b3:	5d                   	pop    %rbp
  4017b4:	41 5c                	pop    %r12
  4017b6:	41 5d                	pop    %r13
  4017b8:	c3                   	retq   
  4017b9:	0f 1f 80 00 00 00 00 	nopl   0x0(%rax)
  4017c0:	44 89 6a 20          	mov    %r13d,0x20(%rdx)
  4017c4:	31 c0                	xor    %eax,%eax
  4017c6:	48 89 dd             	mov    %rbx,%rbp
  4017c9:	e8 b2 00 00 00       	callq  401880 <liballoc_unlock>
  4017ce:	48 83 c4 08          	add    $0x8,%rsp
  4017d2:	48 89 e8             	mov    %rbp,%rax
  4017d5:	5b                   	pop    %rbx
  4017d6:	5d                   	pop    %rbp
  4017d7:	41 5c                	pop    %r12
  4017d9:	41 5d                	pop    %r13
  4017db:	c3                   	retq   
  4017dc:	0f 1f 40 00          	nopl   0x0(%rax)
  4017e0:	48 83 05 00 13 00 00 	addq   $0x1,0x1300(%rip)        # 402ae8 <l_possibleOverruns>
  4017e7:	01 
  4017e8:	eb b8                	jmp    4017a2 <realloc+0x1a2>
  4017ea:	66 0f 1f 44 00 00    	nopw   0x0(%rax,%rax,1)
  4017f0:	e8 5b fc ff ff       	callq  401450 <free>
  4017f5:	31 ed                	xor    %ebp,%ebp
  4017f7:	e9 6c ff ff ff       	jmpq   401768 <realloc+0x168>
  4017fc:	0f 1f 40 00          	nopl   0x0(%rax)
  401800:	48 83 c4 08          	add    $0x8,%rsp
  401804:	48 89 f7             	mov    %rsi,%rdi
  401807:	5b                   	pop    %rbx
  401808:	5d                   	pop    %rbp
  401809:	41 5c                	pop    %r12
  40180b:	41 5d                	pop    %r13
  40180d:	e9 8e f8 ff ff       	jmpq   4010a0 <malloc>
  401812:	66 0f 1f 44 00 00    	nopw   0x0(%rax,%rax,1)
  401818:	48 89 c8             	mov    %rcx,%rax
  40181b:	48 c1 e8 02          	shr    $0x2,%rax
  40181f:	48 8d 34 85 04 00 00 	lea    0x4(,%rax,4),%rsi
  401826:	00 
  401827:	31 c0                	xor    %eax,%eax
  401829:	0f 1f 80 00 00 00 00 	nopl   0x0(%rax)
  401830:	8b 14 03             	mov    (%rbx,%rax,1),%edx
  401833:	89 54 05 00          	mov    %edx,0x0(%rbp,%rax,1)
  401837:	48 83 c0 04          	add    $0x4,%rax
  40183b:	48 39 f0             	cmp    %rsi,%rax
  40183e:	75 f0                	jne    401830 <realloc+0x230>
  401840:	e9 da fe ff ff       	jmpq   40171f <realloc+0x11f>
  401845:	0f 1f 00             	nopl   (%rax)
  401848:	48 89 de             	mov    %rbx,%rsi
  40184b:	e9 ec fe ff ff       	jmpq   40173c <realloc+0x13c>

0000000000401850 <syscall>:
  401850:	49 89 d2             	mov    %rdx,%r10
  401853:	53                   	push   %rbx
  401854:	48 89 f8             	mov    %rdi,%rax
  401857:	48 89 f3             	mov    %rsi,%rbx
  40185a:	48 89 ca             	mov    %rcx,%rdx
  40185d:	4c 89 c6             	mov    %r8,%rsi
  401860:	4c 89 d1             	mov    %r10,%rcx
  401863:	4c 89 cf             	mov    %r9,%rdi
  401866:	cd 69                	int    $0x69
  401868:	5b                   	pop    %rbx
  401869:	c3                   	retq   
  40186a:	66 0f 1f 44 00 00    	nopw   0x0(%rax,%rax,1)

0000000000401870 <liballoc_lock>:
  401870:	31 c0                	xor    %eax,%eax
  401872:	c3                   	retq   
  401873:	66 66 2e 0f 1f 84 00 	data16 nopw %cs:0x0(%rax,%rax,1)
  40187a:	00 00 00 00 
  40187e:	66 90                	xchg   %ax,%ax

0000000000401880 <liballoc_unlock>:
  401880:	48 c7 c0 10 2b 40 00 	mov    $0x402b10,%rax
  401887:	c6 00 00             	movb   $0x0,(%rax)
  40188a:	31 c0                	xor    %eax,%eax
  40188c:	c3                   	retq   
  40188d:	0f 1f 00             	nopl   (%rax)

0000000000401890 <liballoc_alloc>:
  401890:	48 83 ec 18          	sub    $0x18,%rsp
  401894:	48 63 f7             	movslq %edi,%rsi
  401897:	45 31 c9             	xor    %r9d,%r9d
  40189a:	45 31 c0             	xor    %r8d,%r8d
  40189d:	48 8d 54 24 08       	lea    0x8(%rsp),%rdx
  4018a2:	31 c9                	xor    %ecx,%ecx
  4018a4:	bf 0f 00 00 00       	mov    $0xf,%edi
  4018a9:	e8 a2 ff ff ff       	callq  401850 <syscall>
  4018ae:	48 8b 44 24 08       	mov    0x8(%rsp),%rax
  4018b3:	48 83 c4 18          	add    $0x18,%rsp
  4018b7:	c3                   	retq   
  4018b8:	0f 1f 84 00 00 00 00 	nopl   0x0(%rax,%rax,1)
  4018bf:	00 

00000000004018c0 <liballoc_free>:
  4018c0:	31 c0                	xor    %eax,%eax
  4018c2:	c3                   	retq   
  4018c3:	66 2e 0f 1f 84 00 00 	nopw   %cs:0x0(%rax,%rax,1)
  4018ca:	00 00 00 
  4018cd:	0f 1f 00             	nopl   (%rax)

00000000004018d0 <__do_global_ctors_aux>:
  4018d0:	48 8b 05 29 07 00 00 	mov    0x729(%rip),%rax        # 402000 <__CTOR_LIST__>
  4018d7:	48 83 f8 ff          	cmp    $0xffffffffffffffff,%rax
  4018db:	74 33                	je     401910 <__do_global_ctors_aux+0x40>
  4018dd:	55                   	push   %rbp
  4018de:	48 89 e5             	mov    %rsp,%rbp
  4018e1:	53                   	push   %rbx
  4018e2:	bb 00 20 40 00       	mov    $0x402000,%ebx
  4018e7:	48 83 ec 08          	sub    $0x8,%rsp
  4018eb:	0f 1f 44 00 00       	nopl   0x0(%rax,%rax,1)
  4018f0:	ff d0                	callq  *%rax
  4018f2:	48 83 eb 08          	sub    $0x8,%rbx
  4018f6:	48 8b 03             	mov    (%rbx),%rax
  4018f9:	48 83 f8 ff          	cmp    $0xffffffffffffffff,%rax
  4018fd:	75 f1                	jne    4018f0 <__do_global_ctors_aux+0x20>
  4018ff:	48 83 c4 08          	add    $0x8,%rsp
  401903:	5b                   	pop    %rbx
  401904:	5d                   	pop    %rbp
  401905:	c3                   	retq   
  401906:	66 2e 0f 1f 84 00 00 	nopw   %cs:0x0(%rax,%rax,1)
  40190d:	00 00 00 
  401910:	c3                   	retq   

Disassembly of section .fini:

0000000000401911 <_fini>:
  401911:	e8 3a e8 ff ff       	callq  400150 <__do_global_dtors_aux>
  401916:	c2 00 00             	retq   $0x0
